PRU Assembler Unix v2.1.5 Sat Jul  3 21:31:23 2021

Tools Copyright (c) 2012-2017 Texas Instruments Incorporated
/home/debian/BBAI-SHARED-MEM/pru_codes/tmp/main.asm                  PAGE    1

       1;******************************************************************************
       2;* PRU C/C++ Codegen                                              Unix v2.1.5 *
       3;* Date/Time created: Sat Jul  3 21:31:23 2021                                *
       4;******************************************************************************
       5        .compiler_opts --abi=eabi --endian=little --hll_source=on --object_format=elf --silicon_versio
       6
       7$C$DW$CU        .dwtag  DW_TAG_compile_unit
       8        .dwattr $C$DW$CU, DW_AT_name("main.c")
       9        .dwattr $C$DW$CU, DW_AT_producer("TI PRU C/C++ Codegen Unix v2.1.5 Copyright (c) 2012-2017 Tex
      10        .dwattr $C$DW$CU, DW_AT_TI_version(0x01)
      11        .dwattr $C$DW$CU, DW_AT_comp_dir("/home/debian/BBAI-SHARED-MEM/pru_codes")
      12        .global __PRU_CREG_PRU_CFG
      13        .global __PRU_CREG_PRU_INTC
      14        .global __PRU_CREG_PRU_DMEM_0_1
      15        .global __PRU_CREG_PRU_DMEM_1_0
      16
      17$C$DW$1 .dwtag  DW_TAG_subprogram, DW_AT_name("atoi")
      18        .dwattr $C$DW$1, DW_AT_TI_symbol_name("atoi")
      19        .dwattr $C$DW$1, DW_AT_type(*$C$DW$T$10)
      20        .dwattr $C$DW$1, DW_AT_declaration
      21        .dwattr $C$DW$1, DW_AT_external
      22        .dwattr $C$DW$1, DW_AT_decl_file("/usr/share/ti/cgt-pru/include/stdlib.h")
      23        .dwattr $C$DW$1, DW_AT_decl_line(0x78)
      24        .dwattr $C$DW$1, DW_AT_decl_column(0x1c)
      25$C$DW$2 .dwtag  DW_TAG_formal_parameter
      26        .dwattr $C$DW$2, DW_AT_type(*$C$DW$T$335)
      27        .dwendtag $C$DW$1
      28
      29
      30$C$DW$3 .dwtag  DW_TAG_subprogram, DW_AT_name("pru_rpmsg_init")
      31        .dwattr $C$DW$3, DW_AT_TI_symbol_name("pru_rpmsg_init")
      32        .dwattr $C$DW$3, DW_AT_type(*$C$DW$T$328)
      33        .dwattr $C$DW$3, DW_AT_declaration
      34        .dwattr $C$DW$3, DW_AT_external
      35        .dwattr $C$DW$3, DW_AT_decl_file("/usr/lib/ti/pru-software-support-package/include/pru_rpmsg.h
      36        .dwattr $C$DW$3, DW_AT_decl_line(0x8c)
      37        .dwattr $C$DW$3, DW_AT_decl_column(0x09)
      38$C$DW$4 .dwtag  DW_TAG_formal_parameter
      39        .dwattr $C$DW$4, DW_AT_type(*$C$DW$T$313)
      40$C$DW$5 .dwtag  DW_TAG_formal_parameter
      41        .dwattr $C$DW$5, DW_AT_type(*$C$DW$T$314)
      42$C$DW$6 .dwtag  DW_TAG_formal_parameter
      43        .dwattr $C$DW$6, DW_AT_type(*$C$DW$T$314)
      44$C$DW$7 .dwtag  DW_TAG_formal_parameter
      45        .dwattr $C$DW$7, DW_AT_type(*$C$DW$T$32)
      46$C$DW$8 .dwtag  DW_TAG_formal_parameter
      47        .dwattr $C$DW$8, DW_AT_type(*$C$DW$T$32)
      48        .dwendtag $C$DW$3
      49
      50
      51$C$DW$9 .dwtag  DW_TAG_subprogram, DW_AT_name("pru_rpmsg_receive")
      52        .dwattr $C$DW$9, DW_AT_TI_symbol_name("pru_rpmsg_receive")
      53        .dwattr $C$DW$9, DW_AT_type(*$C$DW$T$328)
      54        .dwattr $C$DW$9, DW_AT_declaration
      55        .dwattr $C$DW$9, DW_AT_external
PRU Assembler Unix v2.1.5 Sat Jul  3 21:31:23 2021

Tools Copyright (c) 2012-2017 Texas Instruments Incorporated
/home/debian/BBAI-SHARED-MEM/pru_codes/tmp/main.asm                  PAGE    2

      56        .dwattr $C$DW$9, DW_AT_decl_file("/usr/lib/ti/pru-software-support-package/include/pru_rpmsg.h
      57        .dwattr $C$DW$9, DW_AT_decl_line(0xb2)
      58        .dwattr $C$DW$9, DW_AT_decl_column(0x09)
      59$C$DW$10        .dwtag  DW_TAG_formal_parameter
      60        .dwattr $C$DW$10, DW_AT_type(*$C$DW$T$313)
      61$C$DW$11        .dwtag  DW_TAG_formal_parameter
      62        .dwattr $C$DW$11, DW_AT_type(*$C$DW$T$317)
      63$C$DW$12        .dwtag  DW_TAG_formal_parameter
      64        .dwattr $C$DW$12, DW_AT_type(*$C$DW$T$317)
      65$C$DW$13        .dwtag  DW_TAG_formal_parameter
      66        .dwattr $C$DW$13, DW_AT_type(*$C$DW$T$3)
      67$C$DW$14        .dwtag  DW_TAG_formal_parameter
      68        .dwattr $C$DW$14, DW_AT_type(*$C$DW$T$317)
      69        .dwendtag $C$DW$9
      70
      71
      72$C$DW$15        .dwtag  DW_TAG_subprogram, DW_AT_name("pru_rpmsg_send")
      73        .dwattr $C$DW$15, DW_AT_TI_symbol_name("pru_rpmsg_send")
      74        .dwattr $C$DW$15, DW_AT_type(*$C$DW$T$328)
      75        .dwattr $C$DW$15, DW_AT_declaration
      76        .dwattr $C$DW$15, DW_AT_external
      77        .dwattr $C$DW$15, DW_AT_decl_file("/usr/lib/ti/pru-software-support-package/include/pru_rpmsg.
      78        .dwattr $C$DW$15, DW_AT_decl_line(0xd8)
      79        .dwattr $C$DW$15, DW_AT_decl_column(0x09)
      80$C$DW$16        .dwtag  DW_TAG_formal_parameter
      81        .dwattr $C$DW$16, DW_AT_type(*$C$DW$T$313)
      82$C$DW$17        .dwtag  DW_TAG_formal_parameter
      83        .dwattr $C$DW$17, DW_AT_type(*$C$DW$T$32)
      84$C$DW$18        .dwtag  DW_TAG_formal_parameter
      85        .dwattr $C$DW$18, DW_AT_type(*$C$DW$T$32)
      86$C$DW$19        .dwtag  DW_TAG_formal_parameter
      87        .dwattr $C$DW$19, DW_AT_type(*$C$DW$T$3)
      88$C$DW$20        .dwtag  DW_TAG_formal_parameter
      89        .dwattr $C$DW$20, DW_AT_type(*$C$DW$T$36)
      90        .dwendtag $C$DW$15
      91
      92
      93$C$DW$21        .dwtag  DW_TAG_subprogram, DW_AT_name("pru_rpmsg_channel")
      94        .dwattr $C$DW$21, DW_AT_TI_symbol_name("pru_rpmsg_channel")
      95        .dwattr $C$DW$21, DW_AT_type(*$C$DW$T$328)
      96        .dwattr $C$DW$21, DW_AT_declaration
      97        .dwattr $C$DW$21, DW_AT_external
      98        .dwattr $C$DW$21, DW_AT_decl_file("/usr/lib/ti/pru-software-support-package/include/pru_rpmsg.
      99        .dwattr $C$DW$21, DW_AT_decl_line(0x104)
     100        .dwattr $C$DW$21, DW_AT_decl_column(0x09)
     101$C$DW$22        .dwtag  DW_TAG_formal_parameter
     102        .dwattr $C$DW$22, DW_AT_type(*$C$DW$T$322)
     103$C$DW$23        .dwtag  DW_TAG_formal_parameter
     104        .dwattr $C$DW$23, DW_AT_type(*$C$DW$T$313)
     105$C$DW$24        .dwtag  DW_TAG_formal_parameter
     106        .dwattr $C$DW$24, DW_AT_type(*$C$DW$T$324)
     107$C$DW$25        .dwtag  DW_TAG_formal_parameter
     108        .dwattr $C$DW$25, DW_AT_type(*$C$DW$T$324)
     109$C$DW$26        .dwtag  DW_TAG_formal_parameter
     110        .dwattr $C$DW$26, DW_AT_type(*$C$DW$T$325)
PRU Assembler Unix v2.1.5 Sat Jul  3 21:31:23 2021

Tools Copyright (c) 2012-2017 Texas Instruments Incorporated
/home/debian/BBAI-SHARED-MEM/pru_codes/tmp/main.asm                  PAGE    3

     111        .dwendtag $C$DW$21
     112
     113        .weak   ||CT_CFG||
     114 00000000                 ||CT_CFG||:     .usect  ".creg.PRU_CFG.noload.near",68,1
     115$C$DW$27        .dwtag  DW_TAG_variable, DW_AT_name("CT_CFG")
     116        .dwattr $C$DW$27, DW_AT_TI_symbol_name("CT_CFG")
     117        .dwattr $C$DW$27, DW_AT_location[DW_OP_addr ||CT_CFG||]
     118        .dwattr $C$DW$27, DW_AT_type(*$C$DW$T$295)
     119        .dwattr $C$DW$27, DW_AT_external
     120        .dwattr $C$DW$27, DW_AT_decl_file("/usr/lib/ti/pru-software-support-package/include/am572x_2_0
     121        .dwattr $C$DW$27, DW_AT_decl_line(0xf6)
     122        .dwattr $C$DW$27, DW_AT_decl_column(0x17)
     123        .global ||pru_intc_map||
     124 00000000                         .sect   ".data:pru_intc_map", RW
     125        .clink
     126        .align  1
     127        .elfsym ||pru_intc_map||,SYM_SIZE(4)
     128 00000000                 ||pru_intc_map||:
     129 00000000 00000000000012          .bits   18,8                    ; pru_intc_map[0].evt @ 0
     130 00000000 00000000000312          .bits   3,8                     ; pru_intc_map[0].ch @ 8
     131 00000000 00000000130312          .bits   19,8                    ; pru_intc_map[1].evt @ 16
     132 00000000 00000001130312          .bits   1,8                     ; pru_intc_map[1].ch @ 24
     133
     134$C$DW$28        .dwtag  DW_TAG_variable, DW_AT_name("pru_intc_map")
     135        .dwattr $C$DW$28, DW_AT_TI_symbol_name("pru_intc_map")
     136        .dwattr $C$DW$28, DW_AT_location[DW_OP_addr ||pru_intc_map||]
     137        .dwattr $C$DW$28, DW_AT_type(*$C$DW$T$345)
     138        .dwattr $C$DW$28, DW_AT_external
     139        .dwattr $C$DW$28, DW_AT_decl_file("/var/lib/cloud9/common/resource_table_1.h")
     140        .dwattr $C$DW$28, DW_AT_decl_line(0x3c)
     141        .dwattr $C$DW$28, DW_AT_decl_column(0x0f)
     142        .global ||resourceTable||
     143 00000000                         .sect   ".resource_table:retain", RW
     144        .retain
     145        .align  1
     146        .elfsym ||resourceTable||,SYM_SIZE(124)
     147 00000000                 ||resourceTable||:
     148 00000000 00000000000001          .bits   1,32                    ; resourceTable.base.ver @ 0
     149 00000004 00000000000002          .bits   2,32                    ; resourceTable.base.num @ 32
     150 00000008 00000000000000          .bits   0,32                    ; resourceTable.base.reserved[0] @ 64
     151 0000000c 00000000000000          .bits   0,32                    ; resourceTable.base.reserved[1] @ 96
     152 00000010 00000000000018          .bits   24,32                   ; resourceTable.offset[0] @ 128
     153 00000014 0000000000005C          .bits   92,32                   ; resourceTable.offset[1] @ 160
     154 00000018 00000000000003          .bits   3,32                    ; resourceTable.rpmsg_vdev.type @ 192
     155 0000001c 00000000000007          .bits   7,32                    ; resourceTable.rpmsg_vdev.id @ 224
     156 00000020 00000000000000          .bits   0,32                    ; resourceTable.rpmsg_vdev.notifyid @ 256
     157 00000024 00000000000001          .bits   1,32                    ; resourceTable.rpmsg_vdev.dfeatures @ 288
     158 00000028 00000000000000          .bits   0,32                    ; resourceTable.rpmsg_vdev.gfeatures @ 320
     159 0000002c 00000000000000          .bits   0,32                    ; resourceTable.rpmsg_vdev.config_len @ 352
     160 00000030 00000000000000          .bits   0,8                     ; resourceTable.rpmsg_vdev.status @ 384
     161 00000030 00000000000200          .bits   2,8                     ; resourceTable.rpmsg_vdev.num_of_vrings @ 392
     162 00000030 00000000000200          .bits   0,8                     ; resourceTable.rpmsg_vdev.reserved[0] @ 400
     163 00000030 00000000000200          .bits   0,8                     ; resourceTable.rpmsg_vdev.reserved[1] @ 408
     164 00000034 00000000000000          .bits   0,32                    ; resourceTable.rpmsg_vring0.da @ 416
     165 00000038 00000000000010          .bits   16,32                   ; resourceTable.rpmsg_vring0.align @ 448
PRU Assembler Unix v2.1.5 Sat Jul  3 21:31:23 2021

Tools Copyright (c) 2012-2017 Texas Instruments Incorporated
/home/debian/BBAI-SHARED-MEM/pru_codes/tmp/main.asm                  PAGE    4

     166 0000003c 00000000000010          .bits   16,32                   ; resourceTable.rpmsg_vring0.num @ 480
     167 00000040 00000000000000          .bits   0,32                    ; resourceTable.rpmsg_vring0.notifyid @ 512
     168 00000044 00000000000000          .bits   0,32                    ; resourceTable.rpmsg_vring0.reserved @ 544
     169 00000048 00000000000000          .bits   0,32                    ; resourceTable.rpmsg_vring1.da @ 576
     170 0000004c 00000000000010          .bits   16,32                   ; resourceTable.rpmsg_vring1.align @ 608
     171 00000050 00000000000010          .bits   16,32                   ; resourceTable.rpmsg_vring1.num @ 640
     172 00000054 00000000000000          .bits   0,32                    ; resourceTable.rpmsg_vring1.notifyid @ 672
     173 00000058 00000000000000          .bits   0,32                    ; resourceTable.rpmsg_vring1.reserved @ 704
     174 0000005c 00000000000005          .bits   5,32                    ; resourceTable.pru_ints.type @ 736
     175 00000060 00000000000001          .bits   1,32                    ; resourceTable.pru_ints.u.sub_type @ 768
     176 00000064 00000000000014          .bits   20,32                   ; resourceTable.pru_ints.rsc_size @ 800
     177 00000068 00000000000000          .bits   0,16                    ; resourceTable.pru_ints.rsc.pru_ints.reserved @ 832
     178 00000068 00000000FF0000          .bits   255,8                   ; resourceTable.pru_ints.rsc.pru_ints.channel_host[0] @ 848
     179 00000068 00000001FF0000          .bits   1,8                     ; resourceTable.pru_ints.rsc.pru_ints.channel_host[1] @ 856
     180 0000006c 000000000000FF          .bits   255,8                   ; resourceTable.pru_ints.rsc.pru_ints.channel_host[2] @ 864
     181 0000006c 000000000003FF          .bits   3,8                     ; resourceTable.pru_ints.rsc.pru_ints.channel_host[3] @ 872
     182 0000006c 00000000FF03FF          .bits   255,8                   ; resourceTable.pru_ints.rsc.pru_ints.channel_host[4] @ 880
     183 0000006c 000000FFFF03FF          .bits   255,8                   ; resourceTable.pru_ints.rsc.pru_ints.channel_host[5] @ 888
     184 00000070 000000000000FF          .bits   255,8                   ; resourceTable.pru_ints.rsc.pru_ints.channel_host[6] @ 896
     185 00000070 0000000000FFFF          .bits   255,8                   ; resourceTable.pru_ints.rsc.pru_ints.channel_host[7] @ 904
     186 00000070 00000000FFFFFF          .bits   255,8                   ; resourceTable.pru_ints.rsc.pru_ints.channel_host[8] @ 912
     187 00000070 000000FFFFFFFF          .bits   255,8                   ; resourceTable.pru_ints.rsc.pru_ints.channel_host[9] @ 920
     188 00000074 00000000000002          .bits   2,32                    ; resourceTable.pru_ints.rsc.pru_ints.num_evts @ 928
     189 00000078 00000000000000!         .bits   ||pru_intc_map||,32             ; resourceTable.pru_ints.rsc.pru_ints.event_channel @ 
     190
     191$C$DW$29        .dwtag  DW_TAG_variable, DW_AT_name("resourceTable")
     192        .dwattr $C$DW$29, DW_AT_TI_symbol_name("resourceTable")
     193        .dwattr $C$DW$29, DW_AT_location[DW_OP_addr ||resourceTable||]
     194        .dwattr $C$DW$29, DW_AT_type(*$C$DW$T$276)
     195        .dwattr $C$DW$29, DW_AT_external
     196        .dwattr $C$DW$29, DW_AT_decl_file("/var/lib/cloud9/common/resource_table_1.h")
     197        .dwattr $C$DW$29, DW_AT_decl_line(0x50)
     198        .dwattr $C$DW$29, DW_AT_decl_column(0x1a)
     199        .weak   ||CT_INTC||
     200 00000000                 ||CT_INTC||:    .usect  ".creg.PRU_INTC.noload.far",5380,1
     201$C$DW$30        .dwtag  DW_TAG_variable, DW_AT_name("CT_INTC")
     202        .dwattr $C$DW$30, DW_AT_TI_symbol_name("CT_INTC")
     203        .dwattr $C$DW$30, DW_AT_location[DW_OP_addr ||CT_INTC||]
     204        .dwattr $C$DW$30, DW_AT_type(*$C$DW$T$300)
     205        .dwattr $C$DW$30, DW_AT_external
     206        .dwattr $C$DW$30, DW_AT_decl_file("/usr/lib/ti/pru-software-support-package/include/am572x_2_0
     207        .dwattr $C$DW$30, DW_AT_decl_line(0x359)
     208        .dwattr $C$DW$30, DW_AT_decl_column(0x18)
     209        .global ||shared_1||
     210 00000000                 ||shared_1||:   .usect  ".creg.PRU_DMEM_0_1.near",4,1
     211$C$DW$31        .dwtag  DW_TAG_variable, DW_AT_name("shared_1")
     212        .dwattr $C$DW$31, DW_AT_TI_symbol_name("shared_1")
     213        .dwattr $C$DW$31, DW_AT_location[DW_OP_addr ||shared_1||]
     214        .dwattr $C$DW$31, DW_AT_type(*$C$DW$T$112)
     215        .dwattr $C$DW$31, DW_AT_external
     216        .dwattr $C$DW$31, DW_AT_decl_file("main.c")
     217        .dwattr $C$DW$31, DW_AT_decl_line(0x37)
     218        .dwattr $C$DW$31, DW_AT_decl_column(0x1d)
     219        .global ||shared_2||
     220 00000000                 ||shared_2||:   .usect  ".creg.PRU_DMEM_1_0.near",4,1
PRU Assembler Unix v2.1.5 Sat Jul  3 21:31:23 2021

Tools Copyright (c) 2012-2017 Texas Instruments Incorporated
/home/debian/BBAI-SHARED-MEM/pru_codes/tmp/main.asm                  PAGE    5

     221$C$DW$32        .dwtag  DW_TAG_variable, DW_AT_name("shared_2")
     222        .dwattr $C$DW$32, DW_AT_TI_symbol_name("shared_2")
     223        .dwattr $C$DW$32, DW_AT_location[DW_OP_addr ||shared_2||]
     224        .dwattr $C$DW$32, DW_AT_type(*$C$DW$T$112)
     225        .dwattr $C$DW$32, DW_AT_external
     226        .dwattr $C$DW$32, DW_AT_decl_file("main.c")
     227        .dwattr $C$DW$32, DW_AT_decl_line(0x38)
     228        .dwattr $C$DW$32, DW_AT_decl_column(0x1d)
     229        .global ||payload||
     230        .common ||payload||,512,1
     231$C$DW$33        .dwtag  DW_TAG_variable, DW_AT_name("payload")
     232        .dwattr $C$DW$33, DW_AT_TI_symbol_name("payload")
     233        .dwattr $C$DW$33, DW_AT_location[DW_OP_addr ||payload||]
     234        .dwattr $C$DW$33, DW_AT_type(*$C$DW$T$344)
     235        .dwattr $C$DW$33, DW_AT_external
     236        .dwattr $C$DW$33, DW_AT_decl_file("main.c")
     237        .dwattr $C$DW$33, DW_AT_decl_line(0x3b)
     238        .dwattr $C$DW$33, DW_AT_decl_column(0x06)
     239        .global ||transport||
     240        .common ||transport||,60,1
     241$C$DW$34        .dwtag  DW_TAG_variable, DW_AT_name("transport")
     242        .dwattr $C$DW$34, DW_AT_TI_symbol_name("transport")
     243        .dwattr $C$DW$34, DW_AT_location[DW_OP_addr ||transport||]
     244        .dwattr $C$DW$34, DW_AT_type(*$C$DW$T$277)
     245        .dwattr $C$DW$34, DW_AT_external
     246        .dwattr $C$DW$34, DW_AT_decl_file("main.c")
     247        .dwattr $C$DW$34, DW_AT_decl_line(0x3c)
     248        .dwattr $C$DW$34, DW_AT_decl_column(0x1c)
     249        .global ||src||
     250        .common ||src||,2,1
     251$C$DW$35        .dwtag  DW_TAG_variable, DW_AT_name("src")
     252        .dwattr $C$DW$35, DW_AT_TI_symbol_name("src")
     253        .dwattr $C$DW$35, DW_AT_location[DW_OP_addr ||src||]
     254        .dwattr $C$DW$35, DW_AT_type(*$C$DW$T$36)
     255        .dwattr $C$DW$35, DW_AT_external
     256        .dwattr $C$DW$35, DW_AT_decl_file("main.c")
     257        .dwattr $C$DW$35, DW_AT_decl_line(0x3d)
     258        .dwattr $C$DW$35, DW_AT_decl_column(0x0a)
     259        .global ||dst||
     260        .common ||dst||,2,1
     261$C$DW$36        .dwtag  DW_TAG_variable, DW_AT_name("dst")
     262        .dwattr $C$DW$36, DW_AT_TI_symbol_name("dst")
     263        .dwattr $C$DW$36, DW_AT_location[DW_OP_addr ||dst||]
     264        .dwattr $C$DW$36, DW_AT_type(*$C$DW$T$36)
     265        .dwattr $C$DW$36, DW_AT_external
     266        .dwattr $C$DW$36, DW_AT_decl_file("main.c")
     267        .dwattr $C$DW$36, DW_AT_decl_line(0x3d)
     268        .dwattr $C$DW$36, DW_AT_decl_column(0x0f)
     269        .global ||len||
     270        .common ||len||,2,1
     271$C$DW$37        .dwtag  DW_TAG_variable, DW_AT_name("len")
     272        .dwattr $C$DW$37, DW_AT_TI_symbol_name("len")
     273        .dwattr $C$DW$37, DW_AT_location[DW_OP_addr ||len||]
     274        .dwattr $C$DW$37, DW_AT_type(*$C$DW$T$36)
     275        .dwattr $C$DW$37, DW_AT_external
PRU Assembler Unix v2.1.5 Sat Jul  3 21:31:23 2021

Tools Copyright (c) 2012-2017 Texas Instruments Incorporated
/home/debian/BBAI-SHARED-MEM/pru_codes/tmp/main.asm                  PAGE    6

     276        .dwattr $C$DW$37, DW_AT_decl_file("main.c")
     277        .dwattr $C$DW$37, DW_AT_decl_line(0x3d)
     278        .dwattr $C$DW$37, DW_AT_decl_column(0x14)
     279        .global ||status||
     280        .common ||status||,4,1
     281$C$DW$38        .dwtag  DW_TAG_variable, DW_AT_name("status")
     282        .dwattr $C$DW$38, DW_AT_TI_symbol_name("status")
     283        .dwattr $C$DW$38, DW_AT_location[DW_OP_addr ||status||]
     284        .dwattr $C$DW$38, DW_AT_type(*$C$DW$T$312)
     285        .dwattr $C$DW$38, DW_AT_external
     286        .dwattr $C$DW$38, DW_AT_decl_file("main.c")
     287        .dwattr $C$DW$38, DW_AT_decl_line(0x3e)
     288        .dwattr $C$DW$38, DW_AT_decl_column(0x13)
     289        .global ||sample||
     290        .common ||sample||,4,1
     291$C$DW$39        .dwtag  DW_TAG_variable, DW_AT_name("sample")
     292        .dwattr $C$DW$39, DW_AT_TI_symbol_name("sample")
     293        .dwattr $C$DW$39, DW_AT_location[DW_OP_addr ||sample||]
     294        .dwattr $C$DW$39, DW_AT_type(*$C$DW$T$13)
     295        .dwattr $C$DW$39, DW_AT_external
     296        .dwattr $C$DW$39, DW_AT_decl_file("main.c")
     297        .dwattr $C$DW$39, DW_AT_decl_line(0x3f)
     298        .dwattr $C$DW$39, DW_AT_decl_column(0x0f)
     299        .global ||i||
     300        .common ||i||,4,1
     301$C$DW$40        .dwtag  DW_TAG_variable, DW_AT_name("i")
     302        .dwattr $C$DW$40, DW_AT_TI_symbol_name("i")
     303        .dwattr $C$DW$40, DW_AT_location[DW_OP_addr ||i||]
     304        .dwattr $C$DW$40, DW_AT_type(*$C$DW$T$10)
     305        .dwattr $C$DW$40, DW_AT_external
     306        .dwattr $C$DW$40, DW_AT_decl_file("main.c")
     307        .dwattr $C$DW$40, DW_AT_decl_line(0x40)
     308        .dwattr $C$DW$40, DW_AT_decl_column(0x05)
     309        .global ||init_pins||
     310 00000000                         .sect   ".init_pins:retain"
     311        .retain
     312        .align  1
     313        .elfsym ||init_pins||,SYM_SIZE(105)
     314 00000000                 ||init_pins||:
     315 00000000 0000000000002F          .bits   47,8                    ; init_pins[0] @ 0
     316 00000000 0000000000732F          .bits   115,8                   ; init_pins[1] @ 8
     317 00000000 0000000079732F          .bits   121,8                   ; init_pins[2] @ 16
     318 00000000 0000007379732F          .bits   115,8                   ; init_pins[3] @ 24
     319 00000004 0000000000002F          .bits   47,8                    ; init_pins[4] @ 32
     320 00000004 0000000000632F          .bits   99,8                    ; init_pins[5] @ 40
     321 00000004 000000006C632F          .bits   108,8                   ; init_pins[6] @ 48
     322 00000004 000000616C632F          .bits   97,8                    ; init_pins[7] @ 56
     323 00000008 00000000000073          .bits   115,8                   ; init_pins[8] @ 64
     324 00000008 00000000007373          .bits   115,8                   ; init_pins[9] @ 72
     325 00000008 000000002F7373          .bits   47,8                    ; init_pins[10] @ 80
     326 00000008 0000006C2F7373          .bits   108,8                   ; init_pins[11] @ 88
     327 0000000c 00000000000065          .bits   101,8                   ; init_pins[12] @ 96
     328 0000000c 00000000006465          .bits   100,8                   ; init_pins[13] @ 104
     329 0000000c 00000000736465          .bits   115,8                   ; init_pins[14] @ 112
     330 0000000c 0000002F736465          .bits   47,8                    ; init_pins[15] @ 120
PRU Assembler Unix v2.1.5 Sat Jul  3 21:31:23 2021

Tools Copyright (c) 2012-2017 Texas Instruments Incorporated
/home/debian/BBAI-SHARED-MEM/pru_codes/tmp/main.asm                  PAGE    7

     331 00000010 00000000000062          .bits   98,8                    ; init_pins[16] @ 128
     332 00000010 00000000006562          .bits   101,8                   ; init_pins[17] @ 136
     333 00000010 00000000616562          .bits   97,8                    ; init_pins[18] @ 144
     334 00000010 00000067616562          .bits   103,8                   ; init_pins[19] @ 152
     335 00000014 0000000000006C          .bits   108,8                   ; init_pins[20] @ 160
     336 00000014 0000000000656C          .bits   101,8                   ; init_pins[21] @ 168
     337 00000014 0000000062656C          .bits   98,8                    ; init_pins[22] @ 176
     338 00000014 0000006F62656C          .bits   111,8                   ; init_pins[23] @ 184
     339 00000018 0000000000006E          .bits   110,8                   ; init_pins[24] @ 192
     340 00000018 0000000000656E          .bits   101,8                   ; init_pins[25] @ 200
     341 00000018 000000003A656E          .bits   58,8                    ; init_pins[26] @ 208
     342 00000018 000000673A656E          .bits   103,8                   ; init_pins[27] @ 216
     343 0000001c 00000000000072          .bits   114,8                   ; init_pins[28] @ 224
     344 0000001c 00000000006572          .bits   101,8                   ; init_pins[29] @ 232
     345 0000001c 00000000656572          .bits   101,8                   ; init_pins[30] @ 240
     346 0000001c 0000006E656572          .bits   110,8                   ; init_pins[31] @ 248
     347 00000020 0000000000003A          .bits   58,8                    ; init_pins[32] @ 256
     348 00000020 0000000000753A          .bits   117,8                   ; init_pins[33] @ 264
     349 00000020 0000000073753A          .bits   115,8                   ; init_pins[34] @ 272
     350 00000020 0000007273753A          .bits   114,8                   ; init_pins[35] @ 280
     351 00000024 00000000000031          .bits   49,8                    ; init_pins[36] @ 288
     352 00000024 00000000002F31          .bits   47,8                    ; init_pins[37] @ 296
     353 00000024 00000000742F31          .bits   116,8                   ; init_pins[38] @ 304
     354 00000024 00000072742F31          .bits   114,8                   ; init_pins[39] @ 312
     355 00000028 00000000000069          .bits   105,8                   ; init_pins[40] @ 320
     356 00000028 00000000006769          .bits   103,8                   ; init_pins[41] @ 328
     357 00000028 00000000676769          .bits   103,8                   ; init_pins[42] @ 336
     358 00000028 00000065676769          .bits   101,8                   ; init_pins[43] @ 344
     359 0000002c 00000000000072          .bits   114,8                   ; init_pins[44] @ 352
     360 0000002c 00000000000072          .bits   0,8                     ; init_pins[45] @ 360
     361 0000002c 000000006E0072          .bits   110,8                   ; init_pins[46] @ 368
     362 0000002c 0000006F6E0072          .bits   111,8                   ; init_pins[47] @ 376
     363 00000030 0000000000006E          .bits   110,8                   ; init_pins[48] @ 384
     364 00000030 0000000000656E          .bits   101,8                   ; init_pins[49] @ 392
     365 00000030 0000000000656E          .bits   0,8                     ; init_pins[50] @ 400
     366 00000030 0000002F00656E          .bits   47,8                    ; init_pins[51] @ 408
     367 00000034 00000000000073          .bits   115,8                   ; init_pins[52] @ 416
     368 00000034 00000000007973          .bits   121,8                   ; init_pins[53] @ 424
     369 00000034 00000000737973          .bits   115,8                   ; init_pins[54] @ 432
     370 00000034 0000002F737973          .bits   47,8                    ; init_pins[55] @ 440
     371 00000038 00000000000063          .bits   99,8                    ; init_pins[56] @ 448
     372 00000038 00000000006C63          .bits   108,8                   ; init_pins[57] @ 456
     373 00000038 00000000616C63          .bits   97,8                    ; init_pins[58] @ 464
     374 00000038 00000073616C63          .bits   115,8                   ; init_pins[59] @ 472
     375 0000003c 00000000000073          .bits   115,8                   ; init_pins[60] @ 480
     376 0000003c 00000000002F73          .bits   47,8                    ; init_pins[61] @ 488
     377 0000003c 000000006C2F73          .bits   108,8                   ; init_pins[62] @ 496
     378 0000003c 000000656C2F73          .bits   101,8                   ; init_pins[63] @ 504
     379 00000040 00000000000064          .bits   100,8                   ; init_pins[64] @ 512
     380 00000040 00000000007364          .bits   115,8                   ; init_pins[65] @ 520
     381 00000040 000000002F7364          .bits   47,8                    ; init_pins[66] @ 528
     382 00000040 000000622F7364          .bits   98,8                    ; init_pins[67] @ 536
     383 00000044 00000000000065          .bits   101,8                   ; init_pins[68] @ 544
     384 00000044 00000000006165          .bits   97,8                    ; init_pins[69] @ 552
     385 00000044 00000000676165          .bits   103,8                   ; init_pins[70] @ 560
PRU Assembler Unix v2.1.5 Sat Jul  3 21:31:23 2021

Tools Copyright (c) 2012-2017 Texas Instruments Incorporated
/home/debian/BBAI-SHARED-MEM/pru_codes/tmp/main.asm                  PAGE    8

     386 00000044 0000006C676165          .bits   108,8                   ; init_pins[71] @ 568
     387 00000048 00000000000065          .bits   101,8                   ; init_pins[72] @ 576
     388 00000048 00000000006265          .bits   98,8                    ; init_pins[73] @ 584
     389 00000048 000000006F6265          .bits   111,8                   ; init_pins[74] @ 592
     390 00000048 0000006E6F6265          .bits   110,8                   ; init_pins[75] @ 600
     391 0000004c 00000000000065          .bits   101,8                   ; init_pins[76] @ 608
     392 0000004c 00000000003A65          .bits   58,8                    ; init_pins[77] @ 616
     393 0000004c 00000000673A65          .bits   103,8                   ; init_pins[78] @ 624
     394 0000004c 00000072673A65          .bits   114,8                   ; init_pins[79] @ 632
     395 00000050 00000000000065          .bits   101,8                   ; init_pins[80] @ 640
     396 00000050 00000000006565          .bits   101,8                   ; init_pins[81] @ 648
     397 00000050 000000006E6565          .bits   110,8                   ; init_pins[82] @ 656
     398 00000050 0000003A6E6565          .bits   58,8                    ; init_pins[83] @ 664
     399 00000054 00000000000075          .bits   117,8                   ; init_pins[84] @ 672
     400 00000054 00000000007375          .bits   115,8                   ; init_pins[85] @ 680
     401 00000054 00000000727375          .bits   114,8                   ; init_pins[86] @ 688
     402 00000054 00000032727375          .bits   50,8                    ; init_pins[87] @ 696
     403 00000058 0000000000002F          .bits   47,8                    ; init_pins[88] @ 704
     404 00000058 0000000000742F          .bits   116,8                   ; init_pins[89] @ 712
     405 00000058 0000000072742F          .bits   114,8                   ; init_pins[90] @ 720
     406 00000058 0000006972742F          .bits   105,8                   ; init_pins[91] @ 728
     407 0000005c 00000000000067          .bits   103,8                   ; init_pins[92] @ 736
     408 0000005c 00000000006767          .bits   103,8                   ; init_pins[93] @ 744
     409 0000005c 00000000656767          .bits   101,8                   ; init_pins[94] @ 752
     410 0000005c 00000072656767          .bits   114,8                   ; init_pins[95] @ 760
     411 00000060 00000000000000          .bits   0,8                     ; init_pins[96] @ 768
     412 00000060 00000000006E00          .bits   110,8                   ; init_pins[97] @ 776
     413 00000060 000000006F6E00          .bits   111,8                   ; init_pins[98] @ 784
     414 00000060 0000006E6F6E00          .bits   110,8                   ; init_pins[99] @ 792
     415 00000064 00000000000065          .bits   101,8                   ; init_pins[100] @ 800
     416 00000064 00000000000065          .bits   0,8                     ; init_pins[101] @ 808
     417 00000064 00000000000065          .bits   0,8                     ; init_pins[102] @ 816
     418 00000064 00000000000065          .bits   0,8                     ; init_pins[103] @ 824
     419 00000068 00000000000000          .bits   0,8                     ; init_pins[104] @ 832
     420
     421$C$DW$41        .dwtag  DW_TAG_variable, DW_AT_name("init_pins")
     422        .dwattr $C$DW$41, DW_AT_TI_symbol_name("init_pins")
     423        .dwattr $C$DW$41, DW_AT_location[DW_OP_addr ||init_pins||]
     424        .dwattr $C$DW$41, DW_AT_type(*$C$DW$T$343)
     425        .dwattr $C$DW$41, DW_AT_external
     426        .dwattr $C$DW$41, DW_AT_decl_file("main.c")
     427        .dwattr $C$DW$41, DW_AT_decl_line(0x99)
     428        .dwattr $C$DW$41, DW_AT_decl_column(0x0c)
     429;       optpru /tmp/TI0PvIaj0GQ /tmp/TI0PvANoZex 
     430;       acpiapru -@/tmp/TI0PvdVp8Br 
     431 00000000                         .sect   ".text:write_shared_mem"
     432        .clink
     433        .global ||write_shared_mem||
     434
     435$C$DW$42        .dwtag  DW_TAG_subprogram, DW_AT_name("write_shared_mem")
     436        .dwattr $C$DW$42, DW_AT_low_pc(||write_shared_mem||)
     437        .dwattr $C$DW$42, DW_AT_high_pc(0x00)
     438        .dwattr $C$DW$42, DW_AT_TI_symbol_name("write_shared_mem")
     439        .dwattr $C$DW$42, DW_AT_external
     440        .dwattr $C$DW$42, DW_AT_type(*$C$DW$T$10)
PRU Assembler Unix v2.1.5 Sat Jul  3 21:31:23 2021

Tools Copyright (c) 2012-2017 Texas Instruments Incorporated
/home/debian/BBAI-SHARED-MEM/pru_codes/tmp/main.asm                  PAGE    9

     441        .dwattr $C$DW$42, DW_AT_TI_begin_file("main.c")
     442        .dwattr $C$DW$42, DW_AT_TI_begin_line(0x43)
     443        .dwattr $C$DW$42, DW_AT_TI_begin_column(0x05)
     444        .dwattr $C$DW$42, DW_AT_decl_file("main.c")
     445        .dwattr $C$DW$42, DW_AT_decl_line(0x43)
     446        .dwattr $C$DW$42, DW_AT_decl_column(0x05)
     447        .dwattr $C$DW$42, DW_AT_TI_max_frame_size(0x00)
     448        .dwpsn  file "main.c",line 67,column 30,is_stmt,address ||write_shared_mem||,isa 0
     449
     450        .dwfde $C$DW$CIE, ||write_shared_mem||
     451$C$DW$43        .dwtag  DW_TAG_formal_parameter, DW_AT_name("message")
     452        .dwattr $C$DW$43, DW_AT_TI_symbol_name("message")
     453        .dwattr $C$DW$43, DW_AT_type(*$C$DW$T$10)
     454        .dwattr $C$DW$43, DW_AT_location[DW_OP_regx 0x38]
     455;----------------------------------------------------------------------
     456;  67 | int write_shared_mem(message){                                         
     457;  68 | // TEST 1: works                                                       
     458;  71 | // TEST 2: Works too ! from PRU cookbook                               
     459;  72 | //https://github.com/jadonk/cloud9-examples/blob/master/               
     460;  73 | //        BeagleBone/AI/pru/shared.pru1_1.c                            
     461;  74 | // read next line from linux with sudo devmem2 0x4B202000              
     462;  76 | /*shared_1 = 0xdffd;*/ // commente pour faire le test 4                
     463;  77 | // read next line from linux with sudo devmem2 0x4B200000              
     464;  80 | //TEST 3: Test d'ecrire un tableau  -> ne fonctionne pas               
     465;  81 | // J"ai l'erreur "  error #143: expression must have pointer-to-object
     466;     | type"                                                                  
     467;  84 |  // TEST4:Test a partir du lien ci-dessous: -> Ne fonctionne pas       
     468;  85 | //https://e2e.ti.com/support/processors-group/processors/f/processors-f
     469;     | orum/                                                                  
     470;  86 | //485199/am335x-pru-and-c-c-compiler-memory-access                     
     471;  88 | // TEST 5:  redefinition de l'array -> Works                           
     472;  92 | // TEST 6: ecriture de message dans shared 2                           
     473;  95 | // Test 7: ecriture d'un array dans l'adresse envoyee via RPMSG        
     474;----------------------------------------------------------------------
     475
     476;***************************************************************
     477;* FNAME: write_shared_mem              FR SIZE:   0           *
     478;*                                                             *
     479;* FUNCTION ENVIRONMENT                                        *
     480;*                                                             *
     481;* FUNCTION PROPERTIES                                         *
     482;*                            0 Auto,  0 SOE     *
     483;***************************************************************
     484
     485||write_shared_mem||:
     486;* --------------------------------------------------------------------------*
     487;* r14_0 assigned to message
     488$C$DW$44        .dwtag  DW_TAG_variable, DW_AT_name("message")
     489        .dwattr $C$DW$44, DW_AT_TI_symbol_name("message")
     490        .dwattr $C$DW$44, DW_AT_type(*$C$DW$T$340)
     491        .dwattr $C$DW$44, DW_AT_location[DW_OP_regx 0x38]
     492        .dwcfi  cfa_offset, 0
     493        .dwpsn  file "main.c",line 97,column 3,is_stmt,isa 0
     494;----------------------------------------------------------------------
     495;  97 | (*(volatile uint32_t *)(message))=0xaaaa;                              
PRU Assembler Unix v2.1.5 Sat Jul  3 21:31:23 2021

Tools Copyright (c) 2012-2017 Texas Instruments Incorporated
/home/debian/BBAI-SHARED-MEM/pru_codes/tmp/main.asm                  PAGE   10

     496;----------------------------------------------------------------------
     497 00000000 00000024AAAAE0          LDI       r0, 0xaaaa            ; [ALU_PRU] |97| 
     498 00000004 000000E1002E80          SBBO      &r0, r14, 0, 4        ; [ALU_PRU] |97| message
     499        .dwpsn  file "main.c",line 98,column 3,is_stmt,isa 0
     500;----------------------------------------------------------------------
     501;  98 | return 1;                                                              
     502;----------------------------------------------------------------------
     503 00000008 000000240001EE          LDI       r14, 0x0001           ; [ALU_PRU] |98| 
     504$C$DW$45        .dwtag  DW_TAG_TI_branch
     505        .dwattr $C$DW$45, DW_AT_low_pc(0x00)
     506        .dwattr $C$DW$45, DW_AT_TI_return
     507 0000000c 00000020C30000          JMP       r3.w2                 ; [ALU_PRU] 
     508        .dwattr $C$DW$42, DW_AT_TI_end_file("main.c")
     509        .dwattr $C$DW$42, DW_AT_TI_end_line(0x63)
     510        .dwattr $C$DW$42, DW_AT_TI_end_column(0x01)
     511        .dwendentry
     512        .dwendtag $C$DW$42
     513
     514 00000000                         .sect   ".text:pru_function"
     515        .clink
     516        .global ||pru_function||
     517
     518$C$DW$46        .dwtag  DW_TAG_subprogram, DW_AT_name("pru_function")
     519        .dwattr $C$DW$46, DW_AT_low_pc(||pru_function||)
     520        .dwattr $C$DW$46, DW_AT_high_pc(0x00)
     521        .dwattr $C$DW$46, DW_AT_TI_symbol_name("pru_function")
     522        .dwattr $C$DW$46, DW_AT_external
     523        .dwattr $C$DW$46, DW_AT_type(*$C$DW$T$101)
     524        .dwattr $C$DW$46, DW_AT_TI_begin_file("main.c")
     525        .dwattr $C$DW$46, DW_AT_TI_begin_line(0x66)
     526        .dwattr $C$DW$46, DW_AT_TI_begin_column(0x09)
     527        .dwattr $C$DW$46, DW_AT_decl_file("main.c")
     528        .dwattr $C$DW$46, DW_AT_decl_line(0x66)
     529        .dwattr $C$DW$46, DW_AT_decl_column(0x09)
     530        .dwattr $C$DW$46, DW_AT_TI_max_frame_size(0x16)
     531        .dwpsn  file "main.c",line 102,column 40,is_stmt,address ||pru_function||,isa 0
     532
     533        .dwfde $C$DW$CIE, ||pru_function||
     534$C$DW$47        .dwtag  DW_TAG_formal_parameter, DW_AT_name("i2cDevice")
     535        .dwattr $C$DW$47, DW_AT_TI_symbol_name("i2cDevice")
     536        .dwattr $C$DW$47, DW_AT_type(*$C$DW$T$101)
     537        .dwattr $C$DW$47, DW_AT_location[DW_OP_regx 0x38]
     538;----------------------------------------------------------------------
     539; 102 | uint8_t pru_function(uint8_t i2cDevice){                               
     540;----------------------------------------------------------------------
     541
     542;***************************************************************
     543;* FNAME: pru_function                  FR SIZE:  22           *
     544;*                                                             *
     545;* FUNCTION ENVIRONMENT                                        *
     546;*                                                             *
     547;* FUNCTION PROPERTIES                                         *
     548;*                            0 Auto, 22 SOE     *
     549;***************************************************************
     550
PRU Assembler Unix v2.1.5 Sat Jul  3 21:31:23 2021

Tools Copyright (c) 2012-2017 Texas Instruments Incorporated
/home/debian/BBAI-SHARED-MEM/pru_codes/tmp/main.asm                  PAGE   11

     551 00000000                 ||pru_function||:
     552;* --------------------------------------------------------------------------*
     553;* r4_0  assigned to $O$C1
     554;* r0_0  assigned to $O$C2
     555;* r7_0  assigned to $O$K43
     556;* r6_0  assigned to $O$K41
     557;* r8_0  assigned to $O$K39
     558;* r5_0  assigned to $O$K4
     559;* r4_0  assigned to $O$K28
     560;* r0_0  assigned to $O$K12
     561        .dwcfi  cfa_offset, 0
     562 00000000 0000000516E2E2          SUB       r2, r2, 0x16          ; [ALU_PRU] 
     563        .dwcfi  cfa_offset, 22
     564        .dwpsn  file "main.c",line 105,column 5,is_stmt,isa 0
     565;----------------------------------------------------------------------
     566; 105 | CT_CFG.SYSCFG_bit.STANDBY_INIT = 0;                                    
     567; 106 | // This line is different between AM335x and Am5729                    
     568; 107 | CT_INTC.SICR_bit.STATUS_CLR_INDEX = FROM_ARM_HOST;                     
     569;----------------------------------------------------------------------
     570 00000004 00000091042080!         LBCO      &r0, __PRU_CREG_PRU_CFG, $CSBREL(||CT_CFG||+4), 4 ; [ALU_PRU] |105| CT_CFG
     571 00000008 000000E30042C3          SBBO      &r3.b2, r2, 0, 22     ; [ALU_PRU] 
     572        .dwcfi  save_reg_to_mem, 14, -22
     573        .dwcfi  save_reg_to_mem, 15, -21
     574        .dwcfi  save_reg_to_mem, 16, -20
     575        .dwcfi  save_reg_to_mem, 17, -19
     576        .dwcfi  save_reg_to_mem, 18, -18
     577        .dwcfi  save_reg_to_mem, 19, -17
     578        .dwcfi  save_reg_to_mem, 20, -16
     579        .dwcfi  save_reg_to_mem, 21, -15
     580        .dwcfi  save_reg_to_mem, 22, -14
     581        .dwcfi  save_reg_to_mem, 23, -13
     582        .dwcfi  save_reg_to_mem, 24, -12
     583        .dwcfi  save_reg_to_mem, 25, -11
     584        .dwcfi  save_reg_to_mem, 26, -10
     585        .dwcfi  save_reg_to_mem, 27, -9
     586        .dwcfi  save_reg_to_mem, 28, -8
     587        .dwcfi  save_reg_to_mem, 29, -7
     588        .dwcfi  save_reg_to_mem, 30, -6
     589        .dwcfi  save_reg_to_mem, 31, -5
     590        .dwcfi  save_reg_to_mem, 32, -4
     591        .dwcfi  save_reg_to_mem, 33, -3
     592        .dwcfi  save_reg_to_mem, 34, -2
     593        .dwcfi  save_reg_to_mem, 35, -1
     594        .dwpsn  file "main.c",line 109,column 5,is_stmt,isa 0
     595;----------------------------------------------------------------------
     596; 109 | status = &resourceTable.rpmsg_vdev.status;                             
     597;----------------------------------------------------------------------
     598 0000000c 000000240000EE!         LDI       r14, ||status||       ; [ALU_PRU] |109| status
     599        .dwpsn  file "main.c",line 107,column 5,is_stmt,isa 0
     600 00000010 002485240000C5!         LDI32     r5, ||CT_INTC||+36    ; [ALU_PRU] |107| $O$K4,CT_INTC
     601        .dwpsn  file "main.c",line 105,column 5,is_stmt,isa 0
     602 00000018 0000001D04E0E0          CLR       r0, r0, 0x00000004    ; [ALU_PRU] |105| 
     603 0000001c 00000081042080!         SBCO      &r0, __PRU_CREG_PRU_CFG, $CSBREL(||CT_CFG||+4), 4 ; [ALU_PRU] |105| CT_CFG
     604        .dwpsn  file "main.c",line 107,column 5,is_stmt,isa 0
     605 00000020 FC008024FFFFC0          LDI32     r0, 0xfffffc00        ; [ALU_PRU] |107| 
PRU Assembler Unix v2.1.5 Sat Jul  3 21:31:23 2021

Tools Copyright (c) 2012-2017 Texas Instruments Incorporated
/home/debian/BBAI-SHARED-MEM/pru_codes/tmp/main.asm                  PAGE   12

     606 00000028 000000F1002581          LBBO      &r1, r5, 0, 4         ; [ALU_PRU] |107| $O$K4
     607 0000002c 00000010E0E1E0          AND       r0, r1, r0            ; [ALU_PRU] |107| 
     608 00000030 0000001313E0E0          OR        r0, r0, 0x13          ; [ALU_PRU] |107| 
     609 00000034 000000E1002580          SBBO      &r0, r5, 0, 4         ; [ALU_PRU] |107| $O$K4
     610        .dwpsn  file "main.c",line 109,column 5,is_stmt,isa 0
     611 00000038 000000240000E0!         LDI       r0, ||resourceTable|| ; [ALU_PRU] |109| $O$C2,resourceTable
     612 0000003c 0000000130E0E1          ADD       r1, r0, 0x30          ; [ALU_PRU] |109| $O$C2
     613 00000040 000000E1002E81          SBBO      &r1, r14, 0, 4        ; [ALU_PRU] |109| 
     614;* --------------------------------------------------------------------------*
     615;*   BEGIN LOOP ||$C$L1||
     616;*
     617;*   Loop source line                : 110
     618;*   Loop closing brace source line  : 110
     619;*   Known Minimum Trip Count        : 1
     620;*   Known Maximum Trip Count        : 4294967295
     621;*   Known Max Trip Count Factor     : 1
     622;* --------------------------------------------------------------------------*
     623 00000044                 ||$C$L1||:    
     624        .dwpsn  file "main.c",line 110,column 12,is_stmt,isa 0
     625;----------------------------------------------------------------------
     626; 110 | while (!(*status & VIRTIO_CONFIG_S_DRIVER_OK));                        
     627;----------------------------------------------------------------------
     628 00000044 000000F1300001          LBBO      &r1.b0, r0, 48, 1     ; [ALU_PRU] |110| $O$K12
     629 00000048 000000CF0201FF          QBBC      ||$C$L1||, r1.b0, 0x02 ; [ALU_PRU] |110| 
     630;* --------------------------------------------------------------------------*
     631        .dwpsn  file "main.c",line 112,column 5,is_stmt,isa 0
     632;----------------------------------------------------------------------
     633; 112 | pru_rpmsg_init(&transport, &resourceTable.rpmsg_vring0,                
     634; 113 |     &resourceTable.rpmsg_vring1, TO_ARM_HOST, FROM_ARM_HOST);          
     635;----------------------------------------------------------------------
     636 0000004c 0000000134E0EF          ADD       r15, r0, 0x34         ; [ALU_PRU] |112| $O$K12
     637 00000050 000000240000E4!         LDI       r4, ||transport||     ; [ALU_PRU] |112| $O$C1,transport
     638 00000054 000000240012F1          LDI       r17, 0x0012           ; [ALU_PRU] |112| 
     639 00000058 000000240013F2          LDI       r18, 0x0013           ; [ALU_PRU] |112| 
     640 0000005c 0000000148E0F0          ADD       r16, r0, 0x48         ; [ALU_PRU] |112| $O$K12
     641 00000060 00000010E4E4EE          MOV       r14, r4               ; [ALU_PRU] |112| $O$C1
     642$C$DW$48        .dwtag  DW_TAG_TI_branch
     643        .dwattr $C$DW$48, DW_AT_low_pc(0x00)
     644        .dwattr $C$DW$48, DW_AT_name("pru_rpmsg_init")
     645        .dwattr $C$DW$48, DW_AT_TI_call
     646 00000064 000000230000C3!         JAL       r3.w2, ||pru_rpmsg_init|| ; [ALU_PRU] |112| pru_rpmsg_init
     647;* --------------------------------------------------------------------------*
     648;*   BEGIN LOOP ||$C$L2||
     649;*
     650;*   Loop source line                : 116
     651;*   Loop closing brace source line  : 117
     652;*   Known Minimum Trip Count        : 1
     653;*   Known Maximum Trip Count        : 4294967295
     654;*   Known Max Trip Count Factor     : 1
     655;* --------------------------------------------------------------------------*
     656 00000068                 ||$C$L2||:    
     657        .dwpsn  file "main.c",line 116,column 12,is_stmt,isa 0
     658;----------------------------------------------------------------------
     659; 116 | while (pru_rpmsg_channel(RPMSG_NS_CREATE, &transport, CHAN_NAME, CHAN_D
     660;     | ESC,                                                                   
PRU Assembler Unix v2.1.5 Sat Jul  3 21:31:23 2021

Tools Copyright (c) 2012-2017 Texas Instruments Incorporated
/home/debian/BBAI-SHARED-MEM/pru_codes/tmp/main.asm                  PAGE   13

     661; 117 |       CHAN_PORT) != PRU_RPMSG_SUCCESS);                                
     662; 118 | while (1) {                                                            
     663;----------------------------------------------------------------------
     664 00000068 0000002400000E          LDI       r14.b0, 0x00          ; [ALU_PRU] |116| 
     665 0000006c 00000010E4E4EF          MOV       r15, r4               ; [ALU_PRU] |116| $O$K28
     666 00000070 000090240000D0!         LDI32     r16, $C$SL1           ; [ALU_PRU] |116| 
     667 00000078 000091240000D1!         LDI32     r17, $C$SL2           ; [ALU_PRU] |116| 
     668 00000080 00000024001EF2          LDI       r18, 0x001e           ; [ALU_PRU] |116| 
     669$C$DW$49        .dwtag  DW_TAG_TI_branch
     670        .dwattr $C$DW$49, DW_AT_low_pc(0x00)
     671        .dwattr $C$DW$49, DW_AT_name("pru_rpmsg_channel")
     672        .dwattr $C$DW$49, DW_AT_TI_call
     673 00000084 000000230000C3!         JAL       r3.w2, ||pru_rpmsg_channel|| ; [ALU_PRU] |116| pru_rpmsg_channel
     674 00000088 0000006F008EF8          QBNE      ||$C$L2||, r14.w0, 0x00 ; [ALU_PRU] |116| 
     675;* --------------------------------------------------------------------------*
     676 0000008c 000000240000E7!         LDI       r7, ||src||           ; [ALU_PRU] $O$K43,src
     677 00000090 000000240000E6!         LDI       r6, ||dst||           ; [ALU_PRU] $O$K41,dst
     678 00000094 000000240000E8!         LDI       r8, ||payload||       ; [ALU_PRU] $O$K39,payload
     679;* --------------------------------------------------------------------------*
     680;*   BEGIN LOOP ||$C$L3||
     681;*
     682;*   Loop source line                : 118
     683;*   Loop closing brace source line  : 144
     684;*   Known Minimum Trip Count        : 1
     685;*   Known Maximum Trip Count        : 4294967295
     686;*   Known Max Trip Count Factor     : 1
     687;* --------------------------------------------------------------------------*
     688 00000098                 ||$C$L3||:    
     689        .dwpsn  file "main.c",line 121,column 7,is_stmt,isa 0
     690;----------------------------------------------------------------------
     691; 121 | if (__R31 & HOST_INT) {                                                
     692;----------------------------------------------------------------------
     693 00000098 000000C91FFF00          QBBC      ||$C$L3||, r31, 0x1f  ; [ALU_PRU] |121| 
     694;* --------------------------------------------------------------------------*
     695        .dwpsn  file "main.c",line 123,column 9,is_stmt,isa 0
     696;----------------------------------------------------------------------
     697; 123 | CT_INTC.SICR_bit.STATUS_CLR_INDEX = FROM_ARM_HOST;                     
     698;----------------------------------------------------------------------
     699 0000009c FC008024FFFFC0          LDI32     r0, 0xfffffc00        ; [ALU_PRU] |123| 
     700 000000a4 000000F1002581          LBBO      &r1, r5, 0, 4         ; [ALU_PRU] |123| $O$K4
     701 000000a8 00000010E0E1E0          AND       r0, r1, r0            ; [ALU_PRU] |123| 
     702 000000ac 0000001313E0E0          OR        r0, r0, 0x13          ; [ALU_PRU] |123| 
     703 000000b0 000000E1002580          SBBO      &r0, r5, 0, 4         ; [ALU_PRU] |123| $O$K4
     704;* --------------------------------------------------------------------------*
     705;*   BEGIN LOOP ||$C$L4||
     706;*
     707;*   Loop source line                : 126
     708;*   Loop closing brace source line  : 142
     709;*   Known Minimum Trip Count        : 1
     710;*   Known Maximum Trip Count        : 4294967295
     711;*   Known Max Trip Count Factor     : 1
     712;* --------------------------------------------------------------------------*
     713 000000b4                 ||$C$L4||:    
     714        .dwpsn  file "main.c",line 126,column 16,is_stmt,isa 0
     715;----------------------------------------------------------------------
PRU Assembler Unix v2.1.5 Sat Jul  3 21:31:23 2021

Tools Copyright (c) 2012-2017 Texas Instruments Incorporated
/home/debian/BBAI-SHARED-MEM/pru_codes/tmp/main.asm                  PAGE   14

     716; 126 | while (pru_rpmsg_receive(&transport, &src, &dst, payload,              
     717; 127 |       (uint16_t*)sizeof(int*)) == PRU_RPMSG_SUCCESS) {                 
     718;----------------------------------------------------------------------
     719 000000b4 00000010E4E4EE          MOV       r14, r4               ; [ALU_PRU] |126| $O$K28
     720 000000b8 00000010E7E7EF          MOV       r15, r7               ; [ALU_PRU] |126| $O$K43
     721 000000bc 00000010E6E6F0          MOV       r16, r6               ; [ALU_PRU] |126| $O$K41
     722 000000c0 00000010E8E8F1          MOV       r17, r8               ; [ALU_PRU] |126| $O$K39
     723 000000c4 000000240004F2          LDI       r18, 0x0004           ; [ALU_PRU] |126| 
     724$C$DW$50        .dwtag  DW_TAG_TI_branch
     725        .dwattr $C$DW$50, DW_AT_low_pc(0x00)
     726        .dwattr $C$DW$50, DW_AT_name("pru_rpmsg_receive")
     727        .dwattr $C$DW$50, DW_AT_TI_call
     728 000000c8 000000230000C3!         JAL       r3.w2, ||pru_rpmsg_receive|| ; [ALU_PRU] |126| pru_rpmsg_receive
     729 000000cc 0000006F008EF3          QBNE      ||$C$L3||, r14.w0, 0x00 ; [ALU_PRU] |126| 
     730;* --------------------------------------------------------------------------*
     731        .dwpsn  file "main.c",line 129,column 22,is_stmt,isa 0
     732;----------------------------------------------------------------------
     733; 129 | int message=atoi(payload); // writting the payload to the PRU DATA Ram 
     734;----------------------------------------------------------------------
     735 000000d0 00000010E8E8EE          MOV       r14, r8               ; [ALU_PRU] |129| $O$K39
     736$C$DW$51        .dwtag  DW_TAG_TI_branch
     737        .dwattr $C$DW$51, DW_AT_low_pc(0x00)
     738        .dwattr $C$DW$51, DW_AT_name("atoi")
     739        .dwattr $C$DW$51, DW_AT_TI_call
     740 000000d4 000000230000C3!         JAL       r3.w2, ||atoi||       ; [ALU_PRU] |129| atoi
     741        .dwpsn  file "main.c",line 133,column 11,is_stmt,isa 0
     742;----------------------------------------------------------------------
     743; 133 | write_shared_mem(message);                                             
     744;----------------------------------------------------------------------
     745$C$DW$52        .dwtag  DW_TAG_TI_branch
     746        .dwattr $C$DW$52, DW_AT_low_pc(0x00)
     747        .dwattr $C$DW$52, DW_AT_name("write_shared_mem")
     748        .dwattr $C$DW$52, DW_AT_TI_call
     749 000000d8 000000230000C3!         JAL       r3.w2, ||write_shared_mem|| ; [ALU_PRU] |133| write_shared_mem
     750        .dwpsn  file "main.c",line 140,column 11,is_stmt,isa 0
     751;----------------------------------------------------------------------
     752; 140 | pru_rpmsg_send(&transport, dst, src, payload,(uint16_t)sizeof(int*));  
     753;----------------------------------------------------------------------
     754 000000dc 00000024000492          LDI       r18.w0, 0x0004        ; [ALU_PRU] |140| 
     755 000000e0 00000010E8E8F1          MOV       r17, r8               ; [ALU_PRU] |140| $O$K39
     756 000000e4 000000F1000680          LBBO      &r0.w0, r6, 0, 2      ; [ALU_PRU] |140| $O$K41
     757 000000e8 00000010E4E4EE          MOV       r14, r4               ; [ALU_PRU] |140| $O$K28
     758 000000ec 000000108080EF          MOV       r15, r0.w0            ; [ALU_PRU] |140| 
     759 000000f0 000000F1000780          LBBO      &r0.w0, r7, 0, 2      ; [ALU_PRU] |140| $O$K43
     760 000000f4 000000108080F0          MOV       r16, r0.w0            ; [ALU_PRU] |140| 
     761$C$DW$53        .dwtag  DW_TAG_TI_branch
     762        .dwattr $C$DW$53, DW_AT_low_pc(0x00)
     763        .dwattr $C$DW$53, DW_AT_name("pru_rpmsg_send")
     764        .dwattr $C$DW$53, DW_AT_TI_call
     765 000000f8 000000230000C3!         JAL       r3.w2, ||pru_rpmsg_send|| ; [ALU_PRU] |140| pru_rpmsg_send
     766 000000fc 00000021000000!         JMP       ||$C$L4||             ; [ALU_PRU] |140| 
     767;* --------------------------------------------------------------------------*
     768        .dwattr $C$DW$46, DW_AT_TI_end_file("main.c")
     769        .dwattr $C$DW$46, DW_AT_TI_end_line(0x91)
     770        .dwattr $C$DW$46, DW_AT_TI_end_column(0x01)
PRU Assembler Unix v2.1.5 Sat Jul  3 21:31:23 2021

Tools Copyright (c) 2012-2017 Texas Instruments Incorporated
/home/debian/BBAI-SHARED-MEM/pru_codes/tmp/main.asm                  PAGE   15

     771        .dwendentry
     772        .dwendtag $C$DW$46
     773
     774 00000000                         .sect   ".text:main"
     775        .clink
     776        .global ||main||
     777
     778$C$DW$54        .dwtag  DW_TAG_subprogram, DW_AT_name("main")
     779        .dwattr $C$DW$54, DW_AT_low_pc(||main||)
     780        .dwattr $C$DW$54, DW_AT_high_pc(0x00)
     781        .dwattr $C$DW$54, DW_AT_TI_symbol_name("main")
     782        .dwattr $C$DW$54, DW_AT_external
     783        .dwattr $C$DW$54, DW_AT_TI_begin_file("main.c")
     784        .dwattr $C$DW$54, DW_AT_TI_begin_line(0x92)
     785        .dwattr $C$DW$54, DW_AT_TI_begin_column(0x06)
     786        .dwattr $C$DW$54, DW_AT_decl_file("main.c")
     787        .dwattr $C$DW$54, DW_AT_decl_line(0x92)
     788        .dwattr $C$DW$54, DW_AT_decl_column(0x06)
     789        .dwattr $C$DW$54, DW_AT_TI_max_frame_size(0x02)
     790        .dwpsn  file "main.c",line 146,column 17,is_stmt,address ||main||,isa 0
     791
     792        .dwfde $C$DW$CIE, ||main||
     793;----------------------------------------------------------------------
     794; 146 | void main(void) {                                                      
     795;----------------------------------------------------------------------
     796
     797;***************************************************************
     798;* FNAME: main                          FR SIZE:   2           *
     799;*                                                             *
     800;* FUNCTION ENVIRONMENT                                        *
     801;*                                                             *
     802;* FUNCTION PROPERTIES                                         *
     803;*                            0 Auto,  2 SOE     *
     804;***************************************************************
     805
     806 00000000                 ||main||:
     807;* --------------------------------------------------------------------------*
     808        .dwcfi  cfa_offset, 0
     809;***    ; the preceding call never returns
     810 00000000 0000000502E2E2          SUB       r2, r2, 0x02          ; [ALU_PRU] 
     811        .dwcfi  cfa_offset, 2
     812 00000004 000000E10002C3          SBBO      &r3.b2, r2, 0, 2      ; [ALU_PRU] 
     813        .dwcfi  save_reg_to_mem, 14, -2
     814        .dwcfi  save_reg_to_mem, 15, -1
     815        .dwpsn  file "main.c",line 147,column 3,is_stmt,isa 0
     816;----------------------------------------------------------------------
     817; 147 | pru_function(1);                                                       
     818;----------------------------------------------------------------------
     819$C$DW$55        .dwtag  DW_TAG_TI_branch
     820        .dwattr $C$DW$55, DW_AT_low_pc(0x00)
     821        .dwattr $C$DW$55, DW_AT_name("pru_function")
     822        .dwattr $C$DW$55, DW_AT_TI_call
     823 00000008 000000230000C3!         JAL       r3.w2, ||pru_function|| ; [ALU_PRU] |147| pru_function
     824 0000000c 000000F10002C3          LBBO      &r3.b2, r2, 0, 2      ; [ALU_PRU] 
     825        .dwcfi  restore_reg, 14
PRU Assembler Unix v2.1.5 Sat Jul  3 21:31:23 2021

Tools Copyright (c) 2012-2017 Texas Instruments Incorporated
/home/debian/BBAI-SHARED-MEM/pru_codes/tmp/main.asm                  PAGE   16

     826        .dwcfi  restore_reg, 15
     827 00000010 0000000102E2E2          ADD       r2, r2, 0x02          ; [ALU_PRU] 
     828        .dwcfi  cfa_offset, 0
     829$C$DW$56        .dwtag  DW_TAG_TI_branch
     830        .dwattr $C$DW$56, DW_AT_low_pc(0x00)
     831        .dwattr $C$DW$56, DW_AT_TI_return
     832 00000014 00000020C30000          JMP       r3.w2                 ; [ALU_PRU] 
     833        .dwattr $C$DW$54, DW_AT_TI_end_file("main.c")
     834        .dwattr $C$DW$54, DW_AT_TI_end_line(0x94)
     835        .dwattr $C$DW$54, DW_AT_TI_end_column(0x01)
     836        .dwendentry
     837        .dwendtag $C$DW$54
     838
     839;******************************************************************************
     840;* STRINGS                                                                    *
     841;******************************************************************************
     842 00000000                         .sect   ".rodata:.string"
     843 00000000 00000000000072  ||$C$SL1||:     .string "rpmsg-pru",0
         00000001 00000000000070 
         00000002 0000000000006D 
         00000003 00000000000073 
         00000004 00000000000067 
         00000005 0000000000002D 
         00000006 00000000000070 
         00000007 00000000000072 
         00000008 00000000000075 
         00000009 00000000000000 
     844 0000000a 00000000000043  ||$C$SL2||:     .string "Channel 30",0
         0000000b 00000000000068 
         0000000c 00000000000061 
         0000000d 0000000000006E 
         0000000e 0000000000006E 
         0000000f 00000000000065 
         00000010 0000000000006C 
         00000011 00000000000020 
         00000012 00000000000033 
         00000013 00000000000030 
         00000014 00000000000000 
     845;*****************************************************************************
     846;* UNDEFINED EXTERNAL REFERENCES                                             *
     847;*****************************************************************************
     848        .global ||atoi||
     849        .global ||pru_rpmsg_init||
     850        .global ||pru_rpmsg_receive||
     851        .global ||pru_rpmsg_send||
     852        .global ||pru_rpmsg_channel||
     853
     854;******************************************************************************
     855;* TYPE INFORMATION                                                           *
     856;******************************************************************************
     857
     858$C$DW$T$19      .dwtag  DW_TAG_structure_type
     859        .dwattr $C$DW$T$19, DW_AT_byte_size(0x04)
     860$C$DW$57        .dwtag  DW_TAG_member
     861        .dwattr $C$DW$57, DW_AT_type(*$C$DW$T$11)
PRU Assembler Unix v2.1.5 Sat Jul  3 21:31:23 2021

Tools Copyright (c) 2012-2017 Texas Instruments Incorporated
/home/debian/BBAI-SHARED-MEM/pru_codes/tmp/main.asm                  PAGE   17

     862        .dwattr $C$DW$57, DW_AT_name("REVISION")
     863        .dwattr $C$DW$57, DW_AT_TI_symbol_name("REVISION")
     864        .dwattr $C$DW$57, DW_AT_bit_offset(0x00), DW_AT_bit_size(0x20)
     865        .dwattr $C$DW$57, DW_AT_data_member_location[DW_OP_plus_uconst 0x0]
     866        .dwattr $C$DW$57, DW_AT_accessibility(DW_ACCESS_public)
     867        .dwattr $C$DW$57, DW_AT_decl_file("/usr/lib/ti/pru-software-support-package/include/am572x_2_0
     868        .dwattr $C$DW$57, DW_AT_decl_line(0x2d)
     869        .dwattr $C$DW$57, DW_AT_decl_column(0x0d)
     870        .dwendtag $C$DW$T$19
     871
     872        .dwattr $C$DW$T$19, DW_AT_decl_file("/usr/lib/ti/pru-software-support-package/include/am572x_2
     873        .dwattr $C$DW$T$19, DW_AT_decl_line(0x2c)
     874        .dwattr $C$DW$T$19, DW_AT_decl_column(0x13)
     875$C$DW$T$113     .dwtag  DW_TAG_volatile_type
     876        .dwattr $C$DW$T$113, DW_AT_type(*$C$DW$T$19)
     877
     878$C$DW$T$20      .dwtag  DW_TAG_structure_type
     879        .dwattr $C$DW$T$20, DW_AT_byte_size(0x04)
     880$C$DW$58        .dwtag  DW_TAG_member
     881        .dwattr $C$DW$58, DW_AT_type(*$C$DW$T$11)
     882        .dwattr $C$DW$58, DW_AT_name("IDLE_MODE")
     883        .dwattr $C$DW$58, DW_AT_TI_symbol_name("IDLE_MODE")
     884        .dwattr $C$DW$58, DW_AT_bit_offset(0x1e), DW_AT_bit_size(0x02)
     885        .dwattr $C$DW$58, DW_AT_data_member_location[DW_OP_plus_uconst 0x0]
     886        .dwattr $C$DW$58, DW_AT_accessibility(DW_ACCESS_public)
     887        .dwattr $C$DW$58, DW_AT_decl_file("/usr/lib/ti/pru-software-support-package/include/am572x_2_0
     888        .dwattr $C$DW$58, DW_AT_decl_line(0x37)
     889        .dwattr $C$DW$58, DW_AT_decl_column(0x0d)
     890$C$DW$59        .dwtag  DW_TAG_member
     891        .dwattr $C$DW$59, DW_AT_type(*$C$DW$T$11)
     892        .dwattr $C$DW$59, DW_AT_name("STANDBY_MODE")
     893        .dwattr $C$DW$59, DW_AT_TI_symbol_name("STANDBY_MODE")
     894        .dwattr $C$DW$59, DW_AT_bit_offset(0x1c), DW_AT_bit_size(0x02)
     895        .dwattr $C$DW$59, DW_AT_data_member_location[DW_OP_plus_uconst 0x0]
     896        .dwattr $C$DW$59, DW_AT_accessibility(DW_ACCESS_public)
     897        .dwattr $C$DW$59, DW_AT_decl_file("/usr/lib/ti/pru-software-support-package/include/am572x_2_0
     898        .dwattr $C$DW$59, DW_AT_decl_line(0x38)
     899        .dwattr $C$DW$59, DW_AT_decl_column(0x0d)
     900$C$DW$60        .dwtag  DW_TAG_member
     901        .dwattr $C$DW$60, DW_AT_type(*$C$DW$T$11)
     902        .dwattr $C$DW$60, DW_AT_name("STANDBY_INIT")
     903        .dwattr $C$DW$60, DW_AT_TI_symbol_name("STANDBY_INIT")
     904        .dwattr $C$DW$60, DW_AT_bit_offset(0x1b), DW_AT_bit_size(0x01)
     905        .dwattr $C$DW$60, DW_AT_data_member_location[DW_OP_plus_uconst 0x0]
     906        .dwattr $C$DW$60, DW_AT_accessibility(DW_ACCESS_public)
     907        .dwattr $C$DW$60, DW_AT_decl_file("/usr/lib/ti/pru-software-support-package/include/am572x_2_0
     908        .dwattr $C$DW$60, DW_AT_decl_line(0x39)
     909        .dwattr $C$DW$60, DW_AT_decl_column(0x0d)
     910$C$DW$61        .dwtag  DW_TAG_member
     911        .dwattr $C$DW$61, DW_AT_type(*$C$DW$T$11)
     912        .dwattr $C$DW$61, DW_AT_name("SUB_MWAIT")
     913        .dwattr $C$DW$61, DW_AT_TI_symbol_name("SUB_MWAIT")
     914        .dwattr $C$DW$61, DW_AT_bit_offset(0x1a), DW_AT_bit_size(0x01)
     915        .dwattr $C$DW$61, DW_AT_data_member_location[DW_OP_plus_uconst 0x0]
     916        .dwattr $C$DW$61, DW_AT_accessibility(DW_ACCESS_public)
PRU Assembler Unix v2.1.5 Sat Jul  3 21:31:23 2021

Tools Copyright (c) 2012-2017 Texas Instruments Incorporated
/home/debian/BBAI-SHARED-MEM/pru_codes/tmp/main.asm                  PAGE   18

     917        .dwattr $C$DW$61, DW_AT_decl_file("/usr/lib/ti/pru-software-support-package/include/am572x_2_0
     918        .dwattr $C$DW$61, DW_AT_decl_line(0x3a)
     919        .dwattr $C$DW$61, DW_AT_decl_column(0x0d)
     920$C$DW$62        .dwtag  DW_TAG_member
     921        .dwattr $C$DW$62, DW_AT_type(*$C$DW$T$11)
     922        .dwattr $C$DW$62, DW_AT_name("rsvd6")
     923        .dwattr $C$DW$62, DW_AT_TI_symbol_name("rsvd6")
     924        .dwattr $C$DW$62, DW_AT_bit_offset(0x00), DW_AT_bit_size(0x1a)
     925        .dwattr $C$DW$62, DW_AT_data_member_location[DW_OP_plus_uconst 0x0]
     926        .dwattr $C$DW$62, DW_AT_accessibility(DW_ACCESS_public)
     927        .dwattr $C$DW$62, DW_AT_decl_file("/usr/lib/ti/pru-software-support-package/include/am572x_2_0
     928        .dwattr $C$DW$62, DW_AT_decl_line(0x3b)
     929        .dwattr $C$DW$62, DW_AT_decl_column(0x0d)
     930        .dwendtag $C$DW$T$20
     931
     932        .dwattr $C$DW$T$20, DW_AT_decl_file("/usr/lib/ti/pru-software-support-package/include/am572x_2
     933        .dwattr $C$DW$T$20, DW_AT_decl_line(0x36)
     934        .dwattr $C$DW$T$20, DW_AT_decl_column(0x13)
     935$C$DW$T$115     .dwtag  DW_TAG_volatile_type
     936        .dwattr $C$DW$T$115, DW_AT_type(*$C$DW$T$20)
     937
     938$C$DW$T$21      .dwtag  DW_TAG_structure_type
     939        .dwattr $C$DW$T$21, DW_AT_byte_size(0x04)
     940$C$DW$63        .dwtag  DW_TAG_member
     941        .dwattr $C$DW$63, DW_AT_type(*$C$DW$T$11)
     942        .dwattr $C$DW$63, DW_AT_name("PRU0_GPI_MODE")
     943        .dwattr $C$DW$63, DW_AT_TI_symbol_name("PRU0_GPI_MODE")
     944        .dwattr $C$DW$63, DW_AT_bit_offset(0x1e), DW_AT_bit_size(0x02)
     945        .dwattr $C$DW$63, DW_AT_data_member_location[DW_OP_plus_uconst 0x0]
     946        .dwattr $C$DW$63, DW_AT_accessibility(DW_ACCESS_public)
     947        .dwattr $C$DW$63, DW_AT_decl_file("/usr/lib/ti/pru-software-support-package/include/am572x_2_0
     948        .dwattr $C$DW$63, DW_AT_decl_line(0x45)
     949        .dwattr $C$DW$63, DW_AT_decl_column(0x0d)
     950$C$DW$64        .dwtag  DW_TAG_member
     951        .dwattr $C$DW$64, DW_AT_type(*$C$DW$T$11)
     952        .dwattr $C$DW$64, DW_AT_name("PRU0_GPI_CLK_MODE")
     953        .dwattr $C$DW$64, DW_AT_TI_symbol_name("PRU0_GPI_CLK_MODE")
     954        .dwattr $C$DW$64, DW_AT_bit_offset(0x1d), DW_AT_bit_size(0x01)
     955        .dwattr $C$DW$64, DW_AT_data_member_location[DW_OP_plus_uconst 0x0]
     956        .dwattr $C$DW$64, DW_AT_accessibility(DW_ACCESS_public)
     957        .dwattr $C$DW$64, DW_AT_decl_file("/usr/lib/ti/pru-software-support-package/include/am572x_2_0
     958        .dwattr $C$DW$64, DW_AT_decl_line(0x46)
     959        .dwattr $C$DW$64, DW_AT_decl_column(0x0d)
     960$C$DW$65        .dwtag  DW_TAG_member
     961        .dwattr $C$DW$65, DW_AT_type(*$C$DW$T$11)
     962        .dwattr $C$DW$65, DW_AT_name("PRU0_GPI_DIV0")
     963        .dwattr $C$DW$65, DW_AT_TI_symbol_name("PRU0_GPI_DIV0")
     964        .dwattr $C$DW$65, DW_AT_bit_offset(0x18), DW_AT_bit_size(0x05)
     965        .dwattr $C$DW$65, DW_AT_data_member_location[DW_OP_plus_uconst 0x0]
     966        .dwattr $C$DW$65, DW_AT_accessibility(DW_ACCESS_public)
     967        .dwattr $C$DW$65, DW_AT_decl_file("/usr/lib/ti/pru-software-support-package/include/am572x_2_0
     968        .dwattr $C$DW$65, DW_AT_decl_line(0x47)
     969        .dwattr $C$DW$65, DW_AT_decl_column(0x0d)
     970$C$DW$66        .dwtag  DW_TAG_member
     971        .dwattr $C$DW$66, DW_AT_type(*$C$DW$T$11)
PRU Assembler Unix v2.1.5 Sat Jul  3 21:31:23 2021

Tools Copyright (c) 2012-2017 Texas Instruments Incorporated
/home/debian/BBAI-SHARED-MEM/pru_codes/tmp/main.asm                  PAGE   19

     972        .dwattr $C$DW$66, DW_AT_name("PRU0_GPI_DIV1")
     973        .dwattr $C$DW$66, DW_AT_TI_symbol_name("PRU0_GPI_DIV1")
     974        .dwattr $C$DW$66, DW_AT_bit_offset(0x13), DW_AT_bit_size(0x05)
     975        .dwattr $C$DW$66, DW_AT_data_member_location[DW_OP_plus_uconst 0x0]
     976        .dwattr $C$DW$66, DW_AT_accessibility(DW_ACCESS_public)
     977        .dwattr $C$DW$66, DW_AT_decl_file("/usr/lib/ti/pru-software-support-package/include/am572x_2_0
     978        .dwattr $C$DW$66, DW_AT_decl_line(0x48)
     979        .dwattr $C$DW$66, DW_AT_decl_column(0x0d)
     980$C$DW$67        .dwtag  DW_TAG_member
     981        .dwattr $C$DW$67, DW_AT_type(*$C$DW$T$11)
     982        .dwattr $C$DW$67, DW_AT_name("PRU0_GPI_SB")
     983        .dwattr $C$DW$67, DW_AT_TI_symbol_name("PRU0_GPI_SB")
     984        .dwattr $C$DW$67, DW_AT_bit_offset(0x12), DW_AT_bit_size(0x01)
     985        .dwattr $C$DW$67, DW_AT_data_member_location[DW_OP_plus_uconst 0x0]
     986        .dwattr $C$DW$67, DW_AT_accessibility(DW_ACCESS_public)
     987        .dwattr $C$DW$67, DW_AT_decl_file("/usr/lib/ti/pru-software-support-package/include/am572x_2_0
     988        .dwattr $C$DW$67, DW_AT_decl_line(0x49)
     989        .dwattr $C$DW$67, DW_AT_decl_column(0x0d)
     990$C$DW$68        .dwtag  DW_TAG_member
     991        .dwattr $C$DW$68, DW_AT_type(*$C$DW$T$11)
     992        .dwattr $C$DW$68, DW_AT_name("PRU0_GPO_MODE")
     993        .dwattr $C$DW$68, DW_AT_TI_symbol_name("PRU0_GPO_MODE")
     994        .dwattr $C$DW$68, DW_AT_bit_offset(0x11), DW_AT_bit_size(0x01)
     995        .dwattr $C$DW$68, DW_AT_data_member_location[DW_OP_plus_uconst 0x0]
     996        .dwattr $C$DW$68, DW_AT_accessibility(DW_ACCESS_public)
     997        .dwattr $C$DW$68, DW_AT_decl_file("/usr/lib/ti/pru-software-support-package/include/am572x_2_0
     998        .dwattr $C$DW$68, DW_AT_decl_line(0x4a)
     999        .dwattr $C$DW$68, DW_AT_decl_column(0x0d)
    1000$C$DW$69        .dwtag  DW_TAG_member
    1001        .dwattr $C$DW$69, DW_AT_type(*$C$DW$T$11)
    1002        .dwattr $C$DW$69, DW_AT_name("PRU0_GPO_DIV0")
    1003        .dwattr $C$DW$69, DW_AT_TI_symbol_name("PRU0_GPO_DIV0")
    1004        .dwattr $C$DW$69, DW_AT_bit_offset(0x0c), DW_AT_bit_size(0x05)
    1005        .dwattr $C$DW$69, DW_AT_data_member_location[DW_OP_plus_uconst 0x0]
    1006        .dwattr $C$DW$69, DW_AT_accessibility(DW_ACCESS_public)
    1007        .dwattr $C$DW$69, DW_AT_decl_file("/usr/lib/ti/pru-software-support-package/include/am572x_2_0
    1008        .dwattr $C$DW$69, DW_AT_decl_line(0x4b)
    1009        .dwattr $C$DW$69, DW_AT_decl_column(0x0d)
    1010$C$DW$70        .dwtag  DW_TAG_member
    1011        .dwattr $C$DW$70, DW_AT_type(*$C$DW$T$11)
    1012        .dwattr $C$DW$70, DW_AT_name("PRU0_GPO_DIV1")
    1013        .dwattr $C$DW$70, DW_AT_TI_symbol_name("PRU0_GPO_DIV1")
    1014        .dwattr $C$DW$70, DW_AT_bit_offset(0x07), DW_AT_bit_size(0x05)
    1015        .dwattr $C$DW$70, DW_AT_data_member_location[DW_OP_plus_uconst 0x0]
    1016        .dwattr $C$DW$70, DW_AT_accessibility(DW_ACCESS_public)
    1017        .dwattr $C$DW$70, DW_AT_decl_file("/usr/lib/ti/pru-software-support-package/include/am572x_2_0
    1018        .dwattr $C$DW$70, DW_AT_decl_line(0x4c)
    1019        .dwattr $C$DW$70, DW_AT_decl_column(0x0d)
    1020$C$DW$71        .dwtag  DW_TAG_member
    1021        .dwattr $C$DW$71, DW_AT_type(*$C$DW$T$11)
    1022        .dwattr $C$DW$71, DW_AT_name("PRU0_GPO_SH_SEL")
    1023        .dwattr $C$DW$71, DW_AT_TI_symbol_name("PRU0_GPO_SH_SEL")
    1024        .dwattr $C$DW$71, DW_AT_bit_offset(0x06), DW_AT_bit_size(0x01)
    1025        .dwattr $C$DW$71, DW_AT_data_member_location[DW_OP_plus_uconst 0x0]
    1026        .dwattr $C$DW$71, DW_AT_accessibility(DW_ACCESS_public)
PRU Assembler Unix v2.1.5 Sat Jul  3 21:31:23 2021

Tools Copyright (c) 2012-2017 Texas Instruments Incorporated
/home/debian/BBAI-SHARED-MEM/pru_codes/tmp/main.asm                  PAGE   20

    1027        .dwattr $C$DW$71, DW_AT_decl_file("/usr/lib/ti/pru-software-support-package/include/am572x_2_0
    1028        .dwattr $C$DW$71, DW_AT_decl_line(0x4d)
    1029        .dwattr $C$DW$71, DW_AT_decl_column(0x0d)
    1030$C$DW$72        .dwtag  DW_TAG_member
    1031        .dwattr $C$DW$72, DW_AT_type(*$C$DW$T$11)
    1032        .dwattr $C$DW$72, DW_AT_name("PR1_PRU0_GP_MUX_SEL")
    1033        .dwattr $C$DW$72, DW_AT_TI_symbol_name("PR1_PRU0_GP_MUX_SEL")
    1034        .dwattr $C$DW$72, DW_AT_bit_offset(0x02), DW_AT_bit_size(0x04)
    1035        .dwattr $C$DW$72, DW_AT_data_member_location[DW_OP_plus_uconst 0x0]
    1036        .dwattr $C$DW$72, DW_AT_accessibility(DW_ACCESS_public)
    1037        .dwattr $C$DW$72, DW_AT_decl_file("/usr/lib/ti/pru-software-support-package/include/am572x_2_0
    1038        .dwattr $C$DW$72, DW_AT_decl_line(0x4e)
    1039        .dwattr $C$DW$72, DW_AT_decl_column(0x0d)
    1040$C$DW$73        .dwtag  DW_TAG_member
    1041        .dwattr $C$DW$73, DW_AT_type(*$C$DW$T$11)
    1042        .dwattr $C$DW$73, DW_AT_name("rsvd26")
    1043        .dwattr $C$DW$73, DW_AT_TI_symbol_name("rsvd26")
    1044        .dwattr $C$DW$73, DW_AT_bit_offset(0x00), DW_AT_bit_size(0x02)
    1045        .dwattr $C$DW$73, DW_AT_data_member_location[DW_OP_plus_uconst 0x0]
    1046        .dwattr $C$DW$73, DW_AT_accessibility(DW_ACCESS_public)
    1047        .dwattr $C$DW$73, DW_AT_decl_file("/usr/lib/ti/pru-software-support-package/include/am572x_2_0
    1048        .dwattr $C$DW$73, DW_AT_decl_line(0x4f)
    1049        .dwattr $C$DW$73, DW_AT_decl_column(0x0d)
    1050        .dwendtag $C$DW$T$21
    1051
    1052        .dwattr $C$DW$T$21, DW_AT_decl_file("/usr/lib/ti/pru-software-support-package/include/am572x_2
    1053        .dwattr $C$DW$T$21, DW_AT_decl_line(0x44)
    1054        .dwattr $C$DW$T$21, DW_AT_decl_column(0x13)
    1055$C$DW$T$117     .dwtag  DW_TAG_volatile_type
    1056        .dwattr $C$DW$T$117, DW_AT_type(*$C$DW$T$21)
    1057
    1058$C$DW$T$22      .dwtag  DW_TAG_structure_type
    1059        .dwattr $C$DW$T$22, DW_AT_byte_size(0x04)
    1060$C$DW$74        .dwtag  DW_TAG_member
    1061        .dwattr $C$DW$74, DW_AT_type(*$C$DW$T$11)
    1062        .dwattr $C$DW$74, DW_AT_name("PRU1_GPI_MODE")
    1063        .dwattr $C$DW$74, DW_AT_TI_symbol_name("PRU1_GPI_MODE")
    1064        .dwattr $C$DW$74, DW_AT_bit_offset(0x1e), DW_AT_bit_size(0x02)
    1065        .dwattr $C$DW$74, DW_AT_data_member_location[DW_OP_plus_uconst 0x0]
    1066        .dwattr $C$DW$74, DW_AT_accessibility(DW_ACCESS_public)
    1067        .dwattr $C$DW$74, DW_AT_decl_file("/usr/lib/ti/pru-software-support-package/include/am572x_2_0
    1068        .dwattr $C$DW$74, DW_AT_decl_line(0x59)
    1069        .dwattr $C$DW$74, DW_AT_decl_column(0x0d)
    1070$C$DW$75        .dwtag  DW_TAG_member
    1071        .dwattr $C$DW$75, DW_AT_type(*$C$DW$T$11)
    1072        .dwattr $C$DW$75, DW_AT_name("PRU1_GPI_CLK_MODE")
    1073        .dwattr $C$DW$75, DW_AT_TI_symbol_name("PRU1_GPI_CLK_MODE")
    1074        .dwattr $C$DW$75, DW_AT_bit_offset(0x1d), DW_AT_bit_size(0x01)
    1075        .dwattr $C$DW$75, DW_AT_data_member_location[DW_OP_plus_uconst 0x0]
    1076        .dwattr $C$DW$75, DW_AT_accessibility(DW_ACCESS_public)
    1077        .dwattr $C$DW$75, DW_AT_decl_file("/usr/lib/ti/pru-software-support-package/include/am572x_2_0
    1078        .dwattr $C$DW$75, DW_AT_decl_line(0x5a)
    1079        .dwattr $C$DW$75, DW_AT_decl_column(0x0d)
    1080$C$DW$76        .dwtag  DW_TAG_member
    1081        .dwattr $C$DW$76, DW_AT_type(*$C$DW$T$11)
PRU Assembler Unix v2.1.5 Sat Jul  3 21:31:23 2021

Tools Copyright (c) 2012-2017 Texas Instruments Incorporated
/home/debian/BBAI-SHARED-MEM/pru_codes/tmp/main.asm                  PAGE   21

    1082        .dwattr $C$DW$76, DW_AT_name("PRU1_GPI_DIV0")
    1083        .dwattr $C$DW$76, DW_AT_TI_symbol_name("PRU1_GPI_DIV0")
    1084        .dwattr $C$DW$76, DW_AT_bit_offset(0x18), DW_AT_bit_size(0x05)
    1085        .dwattr $C$DW$76, DW_AT_data_member_location[DW_OP_plus_uconst 0x0]
    1086        .dwattr $C$DW$76, DW_AT_accessibility(DW_ACCESS_public)
    1087        .dwattr $C$DW$76, DW_AT_decl_file("/usr/lib/ti/pru-software-support-package/include/am572x_2_0
    1088        .dwattr $C$DW$76, DW_AT_decl_line(0x5b)
    1089        .dwattr $C$DW$76, DW_AT_decl_column(0x0d)
    1090$C$DW$77        .dwtag  DW_TAG_member
    1091        .dwattr $C$DW$77, DW_AT_type(*$C$DW$T$11)
    1092        .dwattr $C$DW$77, DW_AT_name("PRU1_GPI_DIV1")
    1093        .dwattr $C$DW$77, DW_AT_TI_symbol_name("PRU1_GPI_DIV1")
    1094        .dwattr $C$DW$77, DW_AT_bit_offset(0x13), DW_AT_bit_size(0x05)
    1095        .dwattr $C$DW$77, DW_AT_data_member_location[DW_OP_plus_uconst 0x0]
    1096        .dwattr $C$DW$77, DW_AT_accessibility(DW_ACCESS_public)
    1097        .dwattr $C$DW$77, DW_AT_decl_file("/usr/lib/ti/pru-software-support-package/include/am572x_2_0
    1098        .dwattr $C$DW$77, DW_AT_decl_line(0x5c)
    1099        .dwattr $C$DW$77, DW_AT_decl_column(0x0d)
    1100$C$DW$78        .dwtag  DW_TAG_member
    1101        .dwattr $C$DW$78, DW_AT_type(*$C$DW$T$11)
    1102        .dwattr $C$DW$78, DW_AT_name("PRU1_GPI_SB")
    1103        .dwattr $C$DW$78, DW_AT_TI_symbol_name("PRU1_GPI_SB")
    1104        .dwattr $C$DW$78, DW_AT_bit_offset(0x12), DW_AT_bit_size(0x01)
    1105        .dwattr $C$DW$78, DW_AT_data_member_location[DW_OP_plus_uconst 0x0]
    1106        .dwattr $C$DW$78, DW_AT_accessibility(DW_ACCESS_public)
    1107        .dwattr $C$DW$78, DW_AT_decl_file("/usr/lib/ti/pru-software-support-package/include/am572x_2_0
    1108        .dwattr $C$DW$78, DW_AT_decl_line(0x5d)
    1109        .dwattr $C$DW$78, DW_AT_decl_column(0x0d)
    1110$C$DW$79        .dwtag  DW_TAG_member
    1111        .dwattr $C$DW$79, DW_AT_type(*$C$DW$T$11)
    1112        .dwattr $C$DW$79, DW_AT_name("PRU1_GPO_MODE")
    1113        .dwattr $C$DW$79, DW_AT_TI_symbol_name("PRU1_GPO_MODE")
    1114        .dwattr $C$DW$79, DW_AT_bit_offset(0x11), DW_AT_bit_size(0x01)
    1115        .dwattr $C$DW$79, DW_AT_data_member_location[DW_OP_plus_uconst 0x0]
    1116        .dwattr $C$DW$79, DW_AT_accessibility(DW_ACCESS_public)
    1117        .dwattr $C$DW$79, DW_AT_decl_file("/usr/lib/ti/pru-software-support-package/include/am572x_2_0
    1118        .dwattr $C$DW$79, DW_AT_decl_line(0x5e)
    1119        .dwattr $C$DW$79, DW_AT_decl_column(0x0d)
    1120$C$DW$80        .dwtag  DW_TAG_member
    1121        .dwattr $C$DW$80, DW_AT_type(*$C$DW$T$11)
    1122        .dwattr $C$DW$80, DW_AT_name("PRU1_GPO_DIV0")
    1123        .dwattr $C$DW$80, DW_AT_TI_symbol_name("PRU1_GPO_DIV0")
    1124        .dwattr $C$DW$80, DW_AT_bit_offset(0x0c), DW_AT_bit_size(0x05)
    1125        .dwattr $C$DW$80, DW_AT_data_member_location[DW_OP_plus_uconst 0x0]
    1126        .dwattr $C$DW$80, DW_AT_accessibility(DW_ACCESS_public)
    1127        .dwattr $C$DW$80, DW_AT_decl_file("/usr/lib/ti/pru-software-support-package/include/am572x_2_0
    1128        .dwattr $C$DW$80, DW_AT_decl_line(0x5f)
    1129        .dwattr $C$DW$80, DW_AT_decl_column(0x0d)
    1130$C$DW$81        .dwtag  DW_TAG_member
    1131        .dwattr $C$DW$81, DW_AT_type(*$C$DW$T$11)
    1132        .dwattr $C$DW$81, DW_AT_name("PRU1_GPO_DIV1")
    1133        .dwattr $C$DW$81, DW_AT_TI_symbol_name("PRU1_GPO_DIV1")
    1134        .dwattr $C$DW$81, DW_AT_bit_offset(0x07), DW_AT_bit_size(0x05)
    1135        .dwattr $C$DW$81, DW_AT_data_member_location[DW_OP_plus_uconst 0x0]
    1136        .dwattr $C$DW$81, DW_AT_accessibility(DW_ACCESS_public)
PRU Assembler Unix v2.1.5 Sat Jul  3 21:31:23 2021

Tools Copyright (c) 2012-2017 Texas Instruments Incorporated
/home/debian/BBAI-SHARED-MEM/pru_codes/tmp/main.asm                  PAGE   22

    1137        .dwattr $C$DW$81, DW_AT_decl_file("/usr/lib/ti/pru-software-support-package/include/am572x_2_0
    1138        .dwattr $C$DW$81, DW_AT_decl_line(0x60)
    1139        .dwattr $C$DW$81, DW_AT_decl_column(0x0d)
    1140$C$DW$82        .dwtag  DW_TAG_member
    1141        .dwattr $C$DW$82, DW_AT_type(*$C$DW$T$11)
    1142        .dwattr $C$DW$82, DW_AT_name("PRU1_GPO_SH_SEL")
    1143        .dwattr $C$DW$82, DW_AT_TI_symbol_name("PRU1_GPO_SH_SEL")
    1144        .dwattr $C$DW$82, DW_AT_bit_offset(0x06), DW_AT_bit_size(0x01)
    1145        .dwattr $C$DW$82, DW_AT_data_member_location[DW_OP_plus_uconst 0x0]
    1146        .dwattr $C$DW$82, DW_AT_accessibility(DW_ACCESS_public)
    1147        .dwattr $C$DW$82, DW_AT_decl_file("/usr/lib/ti/pru-software-support-package/include/am572x_2_0
    1148        .dwattr $C$DW$82, DW_AT_decl_line(0x61)
    1149        .dwattr $C$DW$82, DW_AT_decl_column(0x0d)
    1150$C$DW$83        .dwtag  DW_TAG_member
    1151        .dwattr $C$DW$83, DW_AT_type(*$C$DW$T$11)
    1152        .dwattr $C$DW$83, DW_AT_name("PR1_PRU1_GP_MUX_SEL")
    1153        .dwattr $C$DW$83, DW_AT_TI_symbol_name("PR1_PRU1_GP_MUX_SEL")
    1154        .dwattr $C$DW$83, DW_AT_bit_offset(0x02), DW_AT_bit_size(0x04)
    1155        .dwattr $C$DW$83, DW_AT_data_member_location[DW_OP_plus_uconst 0x0]
    1156        .dwattr $C$DW$83, DW_AT_accessibility(DW_ACCESS_public)
    1157        .dwattr $C$DW$83, DW_AT_decl_file("/usr/lib/ti/pru-software-support-package/include/am572x_2_0
    1158        .dwattr $C$DW$83, DW_AT_decl_line(0x62)
    1159        .dwattr $C$DW$83, DW_AT_decl_column(0x0d)
    1160$C$DW$84        .dwtag  DW_TAG_member
    1161        .dwattr $C$DW$84, DW_AT_type(*$C$DW$T$11)
    1162        .dwattr $C$DW$84, DW_AT_name("rsvd26")
    1163        .dwattr $C$DW$84, DW_AT_TI_symbol_name("rsvd26")
    1164        .dwattr $C$DW$84, DW_AT_bit_offset(0x00), DW_AT_bit_size(0x02)
    1165        .dwattr $C$DW$84, DW_AT_data_member_location[DW_OP_plus_uconst 0x0]
    1166        .dwattr $C$DW$84, DW_AT_accessibility(DW_ACCESS_public)
    1167        .dwattr $C$DW$84, DW_AT_decl_file("/usr/lib/ti/pru-software-support-package/include/am572x_2_0
    1168        .dwattr $C$DW$84, DW_AT_decl_line(0x63)
    1169        .dwattr $C$DW$84, DW_AT_decl_column(0x0d)
    1170        .dwendtag $C$DW$T$22
    1171
    1172        .dwattr $C$DW$T$22, DW_AT_decl_file("/usr/lib/ti/pru-software-support-package/include/am572x_2
    1173        .dwattr $C$DW$T$22, DW_AT_decl_line(0x58)
    1174        .dwattr $C$DW$T$22, DW_AT_decl_column(0x13)
    1175$C$DW$T$119     .dwtag  DW_TAG_volatile_type
    1176        .dwattr $C$DW$T$119, DW_AT_type(*$C$DW$T$22)
    1177
    1178$C$DW$T$23      .dwtag  DW_TAG_structure_type
    1179        .dwattr $C$DW$T$23, DW_AT_byte_size(0x04)
    1180$C$DW$85        .dwtag  DW_TAG_member
    1181        .dwattr $C$DW$85, DW_AT_type(*$C$DW$T$11)
    1182        .dwattr $C$DW$85, DW_AT_name("PRU0_CLK_STOP_REQ")
    1183        .dwattr $C$DW$85, DW_AT_TI_symbol_name("PRU0_CLK_STOP_REQ")
    1184        .dwattr $C$DW$85, DW_AT_bit_offset(0x1f), DW_AT_bit_size(0x01)
    1185        .dwattr $C$DW$85, DW_AT_data_member_location[DW_OP_plus_uconst 0x0]
    1186        .dwattr $C$DW$85, DW_AT_accessibility(DW_ACCESS_public)
    1187        .dwattr $C$DW$85, DW_AT_decl_file("/usr/lib/ti/pru-software-support-package/include/am572x_2_0
    1188        .dwattr $C$DW$85, DW_AT_decl_line(0x6d)
    1189        .dwattr $C$DW$85, DW_AT_decl_column(0x0d)
    1190$C$DW$86        .dwtag  DW_TAG_member
    1191        .dwattr $C$DW$86, DW_AT_type(*$C$DW$T$11)
PRU Assembler Unix v2.1.5 Sat Jul  3 21:31:23 2021

Tools Copyright (c) 2012-2017 Texas Instruments Incorporated
/home/debian/BBAI-SHARED-MEM/pru_codes/tmp/main.asm                  PAGE   23

    1192        .dwattr $C$DW$86, DW_AT_name("PRU0_CLK_STOP_ACK")
    1193        .dwattr $C$DW$86, DW_AT_TI_symbol_name("PRU0_CLK_STOP_ACK")
    1194        .dwattr $C$DW$86, DW_AT_bit_offset(0x1e), DW_AT_bit_size(0x01)
    1195        .dwattr $C$DW$86, DW_AT_data_member_location[DW_OP_plus_uconst 0x0]
    1196        .dwattr $C$DW$86, DW_AT_accessibility(DW_ACCESS_public)
    1197        .dwattr $C$DW$86, DW_AT_decl_file("/usr/lib/ti/pru-software-support-package/include/am572x_2_0
    1198        .dwattr $C$DW$86, DW_AT_decl_line(0x6e)
    1199        .dwattr $C$DW$86, DW_AT_decl_column(0x0d)
    1200$C$DW$87        .dwtag  DW_TAG_member
    1201        .dwattr $C$DW$87, DW_AT_type(*$C$DW$T$11)
    1202        .dwattr $C$DW$87, DW_AT_name("PRU0_CLK_EN")
    1203        .dwattr $C$DW$87, DW_AT_TI_symbol_name("PRU0_CLK_EN")
    1204        .dwattr $C$DW$87, DW_AT_bit_offset(0x1d), DW_AT_bit_size(0x01)
    1205        .dwattr $C$DW$87, DW_AT_data_member_location[DW_OP_plus_uconst 0x0]
    1206        .dwattr $C$DW$87, DW_AT_accessibility(DW_ACCESS_public)
    1207        .dwattr $C$DW$87, DW_AT_decl_file("/usr/lib/ti/pru-software-support-package/include/am572x_2_0
    1208        .dwattr $C$DW$87, DW_AT_decl_line(0x6f)
    1209        .dwattr $C$DW$87, DW_AT_decl_column(0x0d)
    1210$C$DW$88        .dwtag  DW_TAG_member
    1211        .dwattr $C$DW$88, DW_AT_type(*$C$DW$T$11)
    1212        .dwattr $C$DW$88, DW_AT_name("PRU1_CLK_STOP_REQ")
    1213        .dwattr $C$DW$88, DW_AT_TI_symbol_name("PRU1_CLK_STOP_REQ")
    1214        .dwattr $C$DW$88, DW_AT_bit_offset(0x1c), DW_AT_bit_size(0x01)
    1215        .dwattr $C$DW$88, DW_AT_data_member_location[DW_OP_plus_uconst 0x0]
    1216        .dwattr $C$DW$88, DW_AT_accessibility(DW_ACCESS_public)
    1217        .dwattr $C$DW$88, DW_AT_decl_file("/usr/lib/ti/pru-software-support-package/include/am572x_2_0
    1218        .dwattr $C$DW$88, DW_AT_decl_line(0x70)
    1219        .dwattr $C$DW$88, DW_AT_decl_column(0x0d)
    1220$C$DW$89        .dwtag  DW_TAG_member
    1221        .dwattr $C$DW$89, DW_AT_type(*$C$DW$T$11)
    1222        .dwattr $C$DW$89, DW_AT_name("PRU1_CLK_STOP_ACK")
    1223        .dwattr $C$DW$89, DW_AT_TI_symbol_name("PRU1_CLK_STOP_ACK")
    1224        .dwattr $C$DW$89, DW_AT_bit_offset(0x1b), DW_AT_bit_size(0x01)
    1225        .dwattr $C$DW$89, DW_AT_data_member_location[DW_OP_plus_uconst 0x0]
    1226        .dwattr $C$DW$89, DW_AT_accessibility(DW_ACCESS_public)
    1227        .dwattr $C$DW$89, DW_AT_decl_file("/usr/lib/ti/pru-software-support-package/include/am572x_2_0
    1228        .dwattr $C$DW$89, DW_AT_decl_line(0x71)
    1229        .dwattr $C$DW$89, DW_AT_decl_column(0x0d)
    1230$C$DW$90        .dwtag  DW_TAG_member
    1231        .dwattr $C$DW$90, DW_AT_type(*$C$DW$T$11)
    1232        .dwattr $C$DW$90, DW_AT_name("PRU1_CLK_EN")
    1233        .dwattr $C$DW$90, DW_AT_TI_symbol_name("PRU1_CLK_EN")
    1234        .dwattr $C$DW$90, DW_AT_bit_offset(0x1a), DW_AT_bit_size(0x01)
    1235        .dwattr $C$DW$90, DW_AT_data_member_location[DW_OP_plus_uconst 0x0]
    1236        .dwattr $C$DW$90, DW_AT_accessibility(DW_ACCESS_public)
    1237        .dwattr $C$DW$90, DW_AT_decl_file("/usr/lib/ti/pru-software-support-package/include/am572x_2_0
    1238        .dwattr $C$DW$90, DW_AT_decl_line(0x72)
    1239        .dwattr $C$DW$90, DW_AT_decl_column(0x0d)
    1240$C$DW$91        .dwtag  DW_TAG_member
    1241        .dwattr $C$DW$91, DW_AT_type(*$C$DW$T$11)
    1242        .dwattr $C$DW$91, DW_AT_name("INTC_CLK_STOP_REQ")
    1243        .dwattr $C$DW$91, DW_AT_TI_symbol_name("INTC_CLK_STOP_REQ")
    1244        .dwattr $C$DW$91, DW_AT_bit_offset(0x19), DW_AT_bit_size(0x01)
    1245        .dwattr $C$DW$91, DW_AT_data_member_location[DW_OP_plus_uconst 0x0]
    1246        .dwattr $C$DW$91, DW_AT_accessibility(DW_ACCESS_public)
PRU Assembler Unix v2.1.5 Sat Jul  3 21:31:23 2021

Tools Copyright (c) 2012-2017 Texas Instruments Incorporated
/home/debian/BBAI-SHARED-MEM/pru_codes/tmp/main.asm                  PAGE   24

    1247        .dwattr $C$DW$91, DW_AT_decl_file("/usr/lib/ti/pru-software-support-package/include/am572x_2_0
    1248        .dwattr $C$DW$91, DW_AT_decl_line(0x73)
    1249        .dwattr $C$DW$91, DW_AT_decl_column(0x0d)
    1250$C$DW$92        .dwtag  DW_TAG_member
    1251        .dwattr $C$DW$92, DW_AT_type(*$C$DW$T$11)
    1252        .dwattr $C$DW$92, DW_AT_name("INTC_CLK_STOP_ACK")
    1253        .dwattr $C$DW$92, DW_AT_TI_symbol_name("INTC_CLK_STOP_ACK")
    1254        .dwattr $C$DW$92, DW_AT_bit_offset(0x18), DW_AT_bit_size(0x01)
    1255        .dwattr $C$DW$92, DW_AT_data_member_location[DW_OP_plus_uconst 0x0]
    1256        .dwattr $C$DW$92, DW_AT_accessibility(DW_ACCESS_public)
    1257        .dwattr $C$DW$92, DW_AT_decl_file("/usr/lib/ti/pru-software-support-package/include/am572x_2_0
    1258        .dwattr $C$DW$92, DW_AT_decl_line(0x74)
    1259        .dwattr $C$DW$92, DW_AT_decl_column(0x0d)
    1260$C$DW$93        .dwtag  DW_TAG_member
    1261        .dwattr $C$DW$93, DW_AT_type(*$C$DW$T$11)
    1262        .dwattr $C$DW$93, DW_AT_name("INTC_CLK_EN")
    1263        .dwattr $C$DW$93, DW_AT_TI_symbol_name("INTC_CLK_EN")
    1264        .dwattr $C$DW$93, DW_AT_bit_offset(0x17), DW_AT_bit_size(0x01)
    1265        .dwattr $C$DW$93, DW_AT_data_member_location[DW_OP_plus_uconst 0x0]
    1266        .dwattr $C$DW$93, DW_AT_accessibility(DW_ACCESS_public)
    1267        .dwattr $C$DW$93, DW_AT_decl_file("/usr/lib/ti/pru-software-support-package/include/am572x_2_0
    1268        .dwattr $C$DW$93, DW_AT_decl_line(0x75)
    1269        .dwattr $C$DW$93, DW_AT_decl_column(0x0d)
    1270$C$DW$94        .dwtag  DW_TAG_member
    1271        .dwattr $C$DW$94, DW_AT_type(*$C$DW$T$11)
    1272        .dwattr $C$DW$94, DW_AT_name("UART_CLK_STOP_REQ")
    1273        .dwattr $C$DW$94, DW_AT_TI_symbol_name("UART_CLK_STOP_REQ")
    1274        .dwattr $C$DW$94, DW_AT_bit_offset(0x16), DW_AT_bit_size(0x01)
    1275        .dwattr $C$DW$94, DW_AT_data_member_location[DW_OP_plus_uconst 0x0]
    1276        .dwattr $C$DW$94, DW_AT_accessibility(DW_ACCESS_public)
    1277        .dwattr $C$DW$94, DW_AT_decl_file("/usr/lib/ti/pru-software-support-package/include/am572x_2_0
    1278        .dwattr $C$DW$94, DW_AT_decl_line(0x76)
    1279        .dwattr $C$DW$94, DW_AT_decl_column(0x0d)
    1280$C$DW$95        .dwtag  DW_TAG_member
    1281        .dwattr $C$DW$95, DW_AT_type(*$C$DW$T$11)
    1282        .dwattr $C$DW$95, DW_AT_name("UART_CLK_STOP_ACK")
    1283        .dwattr $C$DW$95, DW_AT_TI_symbol_name("UART_CLK_STOP_ACK")
    1284        .dwattr $C$DW$95, DW_AT_bit_offset(0x15), DW_AT_bit_size(0x01)
    1285        .dwattr $C$DW$95, DW_AT_data_member_location[DW_OP_plus_uconst 0x0]
    1286        .dwattr $C$DW$95, DW_AT_accessibility(DW_ACCESS_public)
    1287        .dwattr $C$DW$95, DW_AT_decl_file("/usr/lib/ti/pru-software-support-package/include/am572x_2_0
    1288        .dwattr $C$DW$95, DW_AT_decl_line(0x77)
    1289        .dwattr $C$DW$95, DW_AT_decl_column(0x0d)
    1290$C$DW$96        .dwtag  DW_TAG_member
    1291        .dwattr $C$DW$96, DW_AT_type(*$C$DW$T$11)
    1292        .dwattr $C$DW$96, DW_AT_name("UART_CLK_EN")
    1293        .dwattr $C$DW$96, DW_AT_TI_symbol_name("UART_CLK_EN")
    1294        .dwattr $C$DW$96, DW_AT_bit_offset(0x14), DW_AT_bit_size(0x01)
    1295        .dwattr $C$DW$96, DW_AT_data_member_location[DW_OP_plus_uconst 0x0]
    1296        .dwattr $C$DW$96, DW_AT_accessibility(DW_ACCESS_public)
    1297        .dwattr $C$DW$96, DW_AT_decl_file("/usr/lib/ti/pru-software-support-package/include/am572x_2_0
    1298        .dwattr $C$DW$96, DW_AT_decl_line(0x78)
    1299        .dwattr $C$DW$96, DW_AT_decl_column(0x0d)
    1300$C$DW$97        .dwtag  DW_TAG_member
    1301        .dwattr $C$DW$97, DW_AT_type(*$C$DW$T$11)
PRU Assembler Unix v2.1.5 Sat Jul  3 21:31:23 2021

Tools Copyright (c) 2012-2017 Texas Instruments Incorporated
/home/debian/BBAI-SHARED-MEM/pru_codes/tmp/main.asm                  PAGE   25

    1302        .dwattr $C$DW$97, DW_AT_name("ECAP_CLK_STOP_REQ")
    1303        .dwattr $C$DW$97, DW_AT_TI_symbol_name("ECAP_CLK_STOP_REQ")
    1304        .dwattr $C$DW$97, DW_AT_bit_offset(0x13), DW_AT_bit_size(0x01)
    1305        .dwattr $C$DW$97, DW_AT_data_member_location[DW_OP_plus_uconst 0x0]
    1306        .dwattr $C$DW$97, DW_AT_accessibility(DW_ACCESS_public)
    1307        .dwattr $C$DW$97, DW_AT_decl_file("/usr/lib/ti/pru-software-support-package/include/am572x_2_0
    1308        .dwattr $C$DW$97, DW_AT_decl_line(0x79)
    1309        .dwattr $C$DW$97, DW_AT_decl_column(0x0d)
    1310$C$DW$98        .dwtag  DW_TAG_member
    1311        .dwattr $C$DW$98, DW_AT_type(*$C$DW$T$11)
    1312        .dwattr $C$DW$98, DW_AT_name("ECAP_CLK_STOP_ACK")
    1313        .dwattr $C$DW$98, DW_AT_TI_symbol_name("ECAP_CLK_STOP_ACK")
    1314        .dwattr $C$DW$98, DW_AT_bit_offset(0x12), DW_AT_bit_size(0x01)
    1315        .dwattr $C$DW$98, DW_AT_data_member_location[DW_OP_plus_uconst 0x0]
    1316        .dwattr $C$DW$98, DW_AT_accessibility(DW_ACCESS_public)
    1317        .dwattr $C$DW$98, DW_AT_decl_file("/usr/lib/ti/pru-software-support-package/include/am572x_2_0
    1318        .dwattr $C$DW$98, DW_AT_decl_line(0x7a)
    1319        .dwattr $C$DW$98, DW_AT_decl_column(0x0d)
    1320$C$DW$99        .dwtag  DW_TAG_member
    1321        .dwattr $C$DW$99, DW_AT_type(*$C$DW$T$11)
    1322        .dwattr $C$DW$99, DW_AT_name("ECAP_CLK_EN")
    1323        .dwattr $C$DW$99, DW_AT_TI_symbol_name("ECAP_CLK_EN")
    1324        .dwattr $C$DW$99, DW_AT_bit_offset(0x11), DW_AT_bit_size(0x01)
    1325        .dwattr $C$DW$99, DW_AT_data_member_location[DW_OP_plus_uconst 0x0]
    1326        .dwattr $C$DW$99, DW_AT_accessibility(DW_ACCESS_public)
    1327        .dwattr $C$DW$99, DW_AT_decl_file("/usr/lib/ti/pru-software-support-package/include/am572x_2_0
    1328        .dwattr $C$DW$99, DW_AT_decl_line(0x7b)
    1329        .dwattr $C$DW$99, DW_AT_decl_column(0x0d)
    1330$C$DW$100       .dwtag  DW_TAG_member
    1331        .dwattr $C$DW$100, DW_AT_type(*$C$DW$T$11)
    1332        .dwattr $C$DW$100, DW_AT_name("IEP_CLK_STOP_REQ")
    1333        .dwattr $C$DW$100, DW_AT_TI_symbol_name("IEP_CLK_STOP_REQ")
    1334        .dwattr $C$DW$100, DW_AT_bit_offset(0x10), DW_AT_bit_size(0x01)
    1335        .dwattr $C$DW$100, DW_AT_data_member_location[DW_OP_plus_uconst 0x0]
    1336        .dwattr $C$DW$100, DW_AT_accessibility(DW_ACCESS_public)
    1337        .dwattr $C$DW$100, DW_AT_decl_file("/usr/lib/ti/pru-software-support-package/include/am572x_2_
    1338        .dwattr $C$DW$100, DW_AT_decl_line(0x7c)
    1339        .dwattr $C$DW$100, DW_AT_decl_column(0x0d)
    1340$C$DW$101       .dwtag  DW_TAG_member
    1341        .dwattr $C$DW$101, DW_AT_type(*$C$DW$T$11)
    1342        .dwattr $C$DW$101, DW_AT_name("IEP_CLK_STOP_ACK")
    1343        .dwattr $C$DW$101, DW_AT_TI_symbol_name("IEP_CLK_STOP_ACK")
    1344        .dwattr $C$DW$101, DW_AT_bit_offset(0x0f), DW_AT_bit_size(0x01)
    1345        .dwattr $C$DW$101, DW_AT_data_member_location[DW_OP_plus_uconst 0x0]
    1346        .dwattr $C$DW$101, DW_AT_accessibility(DW_ACCESS_public)
    1347        .dwattr $C$DW$101, DW_AT_decl_file("/usr/lib/ti/pru-software-support-package/include/am572x_2_
    1348        .dwattr $C$DW$101, DW_AT_decl_line(0x7d)
    1349        .dwattr $C$DW$101, DW_AT_decl_column(0x0d)
    1350$C$DW$102       .dwtag  DW_TAG_member
    1351        .dwattr $C$DW$102, DW_AT_type(*$C$DW$T$11)
    1352        .dwattr $C$DW$102, DW_AT_name("IEP_CLK_EN")
    1353        .dwattr $C$DW$102, DW_AT_TI_symbol_name("IEP_CLK_EN")
    1354        .dwattr $C$DW$102, DW_AT_bit_offset(0x0e), DW_AT_bit_size(0x01)
    1355        .dwattr $C$DW$102, DW_AT_data_member_location[DW_OP_plus_uconst 0x0]
    1356        .dwattr $C$DW$102, DW_AT_accessibility(DW_ACCESS_public)
PRU Assembler Unix v2.1.5 Sat Jul  3 21:31:23 2021

Tools Copyright (c) 2012-2017 Texas Instruments Incorporated
/home/debian/BBAI-SHARED-MEM/pru_codes/tmp/main.asm                  PAGE   26

    1357        .dwattr $C$DW$102, DW_AT_decl_file("/usr/lib/ti/pru-software-support-package/include/am572x_2_
    1358        .dwattr $C$DW$102, DW_AT_decl_line(0x7e)
    1359        .dwattr $C$DW$102, DW_AT_decl_column(0x0d)
    1360$C$DW$103       .dwtag  DW_TAG_member
    1361        .dwattr $C$DW$103, DW_AT_type(*$C$DW$T$11)
    1362        .dwattr $C$DW$103, DW_AT_name("rsvd18")
    1363        .dwattr $C$DW$103, DW_AT_TI_symbol_name("rsvd18")
    1364        .dwattr $C$DW$103, DW_AT_bit_offset(0x00), DW_AT_bit_size(0x0e)
    1365        .dwattr $C$DW$103, DW_AT_data_member_location[DW_OP_plus_uconst 0x0]
    1366        .dwattr $C$DW$103, DW_AT_accessibility(DW_ACCESS_public)
    1367        .dwattr $C$DW$103, DW_AT_decl_file("/usr/lib/ti/pru-software-support-package/include/am572x_2_
    1368        .dwattr $C$DW$103, DW_AT_decl_line(0x7f)
    1369        .dwattr $C$DW$103, DW_AT_decl_column(0x0d)
    1370        .dwendtag $C$DW$T$23
    1371
    1372        .dwattr $C$DW$T$23, DW_AT_decl_file("/usr/lib/ti/pru-software-support-package/include/am572x_2
    1373        .dwattr $C$DW$T$23, DW_AT_decl_line(0x6c)
    1374        .dwattr $C$DW$T$23, DW_AT_decl_column(0x13)
    1375$C$DW$T$121     .dwtag  DW_TAG_volatile_type
    1376        .dwattr $C$DW$T$121, DW_AT_type(*$C$DW$T$23)
    1377
    1378$C$DW$T$24      .dwtag  DW_TAG_structure_type
    1379        .dwattr $C$DW$T$24, DW_AT_byte_size(0x04)
    1380$C$DW$104       .dwtag  DW_TAG_member
    1381        .dwattr $C$DW$104, DW_AT_type(*$C$DW$T$11)
    1382        .dwattr $C$DW$104, DW_AT_name("PRU0_IMEM_PE_RAW")
    1383        .dwattr $C$DW$104, DW_AT_TI_symbol_name("PRU0_IMEM_PE_RAW")
    1384        .dwattr $C$DW$104, DW_AT_bit_offset(0x1c), DW_AT_bit_size(0x04)
    1385        .dwattr $C$DW$104, DW_AT_data_member_location[DW_OP_plus_uconst 0x0]
    1386        .dwattr $C$DW$104, DW_AT_accessibility(DW_ACCESS_public)
    1387        .dwattr $C$DW$104, DW_AT_decl_file("/usr/lib/ti/pru-software-support-package/include/am572x_2_
    1388        .dwattr $C$DW$104, DW_AT_decl_line(0x89)
    1389        .dwattr $C$DW$104, DW_AT_decl_column(0x0d)
    1390$C$DW$105       .dwtag  DW_TAG_member
    1391        .dwattr $C$DW$105, DW_AT_type(*$C$DW$T$11)
    1392        .dwattr $C$DW$105, DW_AT_name("PRU0_DMEM_PE_RAW")
    1393        .dwattr $C$DW$105, DW_AT_TI_symbol_name("PRU0_DMEM_PE_RAW")
    1394        .dwattr $C$DW$105, DW_AT_bit_offset(0x18), DW_AT_bit_size(0x04)
    1395        .dwattr $C$DW$105, DW_AT_data_member_location[DW_OP_plus_uconst 0x0]
    1396        .dwattr $C$DW$105, DW_AT_accessibility(DW_ACCESS_public)
    1397        .dwattr $C$DW$105, DW_AT_decl_file("/usr/lib/ti/pru-software-support-package/include/am572x_2_
    1398        .dwattr $C$DW$105, DW_AT_decl_line(0x8a)
    1399        .dwattr $C$DW$105, DW_AT_decl_column(0x0d)
    1400$C$DW$106       .dwtag  DW_TAG_member
    1401        .dwattr $C$DW$106, DW_AT_type(*$C$DW$T$11)
    1402        .dwattr $C$DW$106, DW_AT_name("PRU1_IMEM_PE_RAW")
    1403        .dwattr $C$DW$106, DW_AT_TI_symbol_name("PRU1_IMEM_PE_RAW")
    1404        .dwattr $C$DW$106, DW_AT_bit_offset(0x14), DW_AT_bit_size(0x04)
    1405        .dwattr $C$DW$106, DW_AT_data_member_location[DW_OP_plus_uconst 0x0]
    1406        .dwattr $C$DW$106, DW_AT_accessibility(DW_ACCESS_public)
    1407        .dwattr $C$DW$106, DW_AT_decl_file("/usr/lib/ti/pru-software-support-package/include/am572x_2_
    1408        .dwattr $C$DW$106, DW_AT_decl_line(0x8b)
    1409        .dwattr $C$DW$106, DW_AT_decl_column(0x0d)
    1410$C$DW$107       .dwtag  DW_TAG_member
    1411        .dwattr $C$DW$107, DW_AT_type(*$C$DW$T$11)
PRU Assembler Unix v2.1.5 Sat Jul  3 21:31:23 2021

Tools Copyright (c) 2012-2017 Texas Instruments Incorporated
/home/debian/BBAI-SHARED-MEM/pru_codes/tmp/main.asm                  PAGE   27

    1412        .dwattr $C$DW$107, DW_AT_name("PRU1_DMEM_PE_RAW")
    1413        .dwattr $C$DW$107, DW_AT_TI_symbol_name("PRU1_DMEM_PE_RAW")
    1414        .dwattr $C$DW$107, DW_AT_bit_offset(0x10), DW_AT_bit_size(0x04)
    1415        .dwattr $C$DW$107, DW_AT_data_member_location[DW_OP_plus_uconst 0x0]
    1416        .dwattr $C$DW$107, DW_AT_accessibility(DW_ACCESS_public)
    1417        .dwattr $C$DW$107, DW_AT_decl_file("/usr/lib/ti/pru-software-support-package/include/am572x_2_
    1418        .dwattr $C$DW$107, DW_AT_decl_line(0x8c)
    1419        .dwattr $C$DW$107, DW_AT_decl_column(0x0d)
    1420$C$DW$108       .dwtag  DW_TAG_member
    1421        .dwattr $C$DW$108, DW_AT_type(*$C$DW$T$11)
    1422        .dwattr $C$DW$108, DW_AT_name("RAM_PE_RAW")
    1423        .dwattr $C$DW$108, DW_AT_TI_symbol_name("RAM_PE_RAW")
    1424        .dwattr $C$DW$108, DW_AT_bit_offset(0x0c), DW_AT_bit_size(0x04)
    1425        .dwattr $C$DW$108, DW_AT_data_member_location[DW_OP_plus_uconst 0x0]
    1426        .dwattr $C$DW$108, DW_AT_accessibility(DW_ACCESS_public)
    1427        .dwattr $C$DW$108, DW_AT_decl_file("/usr/lib/ti/pru-software-support-package/include/am572x_2_
    1428        .dwattr $C$DW$108, DW_AT_decl_line(0x8d)
    1429        .dwattr $C$DW$108, DW_AT_decl_column(0x0d)
    1430$C$DW$109       .dwtag  DW_TAG_member
    1431        .dwattr $C$DW$109, DW_AT_type(*$C$DW$T$11)
    1432        .dwattr $C$DW$109, DW_AT_name("rsvd20")
    1433        .dwattr $C$DW$109, DW_AT_TI_symbol_name("rsvd20")
    1434        .dwattr $C$DW$109, DW_AT_bit_offset(0x00), DW_AT_bit_size(0x0c)
    1435        .dwattr $C$DW$109, DW_AT_data_member_location[DW_OP_plus_uconst 0x0]
    1436        .dwattr $C$DW$109, DW_AT_accessibility(DW_ACCESS_public)
    1437        .dwattr $C$DW$109, DW_AT_decl_file("/usr/lib/ti/pru-software-support-package/include/am572x_2_
    1438        .dwattr $C$DW$109, DW_AT_decl_line(0x8e)
    1439        .dwattr $C$DW$109, DW_AT_decl_column(0x0d)
    1440        .dwendtag $C$DW$T$24
    1441
    1442        .dwattr $C$DW$T$24, DW_AT_decl_file("/usr/lib/ti/pru-software-support-package/include/am572x_2
    1443        .dwattr $C$DW$T$24, DW_AT_decl_line(0x88)
    1444        .dwattr $C$DW$T$24, DW_AT_decl_column(0x14)
    1445$C$DW$T$123     .dwtag  DW_TAG_volatile_type
    1446        .dwattr $C$DW$T$123, DW_AT_type(*$C$DW$T$24)
    1447
    1448$C$DW$T$25      .dwtag  DW_TAG_structure_type
    1449        .dwattr $C$DW$T$25, DW_AT_byte_size(0x04)
    1450$C$DW$110       .dwtag  DW_TAG_member
    1451        .dwattr $C$DW$110, DW_AT_type(*$C$DW$T$11)
    1452        .dwattr $C$DW$110, DW_AT_name("PRU0_IMEM_PE")
    1453        .dwattr $C$DW$110, DW_AT_TI_symbol_name("PRU0_IMEM_PE")
    1454        .dwattr $C$DW$110, DW_AT_bit_offset(0x1c), DW_AT_bit_size(0x04)
    1455        .dwattr $C$DW$110, DW_AT_data_member_location[DW_OP_plus_uconst 0x0]
    1456        .dwattr $C$DW$110, DW_AT_accessibility(DW_ACCESS_public)
    1457        .dwattr $C$DW$110, DW_AT_decl_file("/usr/lib/ti/pru-software-support-package/include/am572x_2_
    1458        .dwattr $C$DW$110, DW_AT_decl_line(0x98)
    1459        .dwattr $C$DW$110, DW_AT_decl_column(0x0d)
    1460$C$DW$111       .dwtag  DW_TAG_member
    1461        .dwattr $C$DW$111, DW_AT_type(*$C$DW$T$11)
    1462        .dwattr $C$DW$111, DW_AT_name("PRU0_DMEM_PE")
    1463        .dwattr $C$DW$111, DW_AT_TI_symbol_name("PRU0_DMEM_PE")
    1464        .dwattr $C$DW$111, DW_AT_bit_offset(0x18), DW_AT_bit_size(0x04)
    1465        .dwattr $C$DW$111, DW_AT_data_member_location[DW_OP_plus_uconst 0x0]
    1466        .dwattr $C$DW$111, DW_AT_accessibility(DW_ACCESS_public)
PRU Assembler Unix v2.1.5 Sat Jul  3 21:31:23 2021

Tools Copyright (c) 2012-2017 Texas Instruments Incorporated
/home/debian/BBAI-SHARED-MEM/pru_codes/tmp/main.asm                  PAGE   28

    1467        .dwattr $C$DW$111, DW_AT_decl_file("/usr/lib/ti/pru-software-support-package/include/am572x_2_
    1468        .dwattr $C$DW$111, DW_AT_decl_line(0x99)
    1469        .dwattr $C$DW$111, DW_AT_decl_column(0x0d)
    1470$C$DW$112       .dwtag  DW_TAG_member
    1471        .dwattr $C$DW$112, DW_AT_type(*$C$DW$T$11)
    1472        .dwattr $C$DW$112, DW_AT_name("PRU1_IMEM_PE")
    1473        .dwattr $C$DW$112, DW_AT_TI_symbol_name("PRU1_IMEM_PE")
    1474        .dwattr $C$DW$112, DW_AT_bit_offset(0x14), DW_AT_bit_size(0x04)
    1475        .dwattr $C$DW$112, DW_AT_data_member_location[DW_OP_plus_uconst 0x0]
    1476        .dwattr $C$DW$112, DW_AT_accessibility(DW_ACCESS_public)
    1477        .dwattr $C$DW$112, DW_AT_decl_file("/usr/lib/ti/pru-software-support-package/include/am572x_2_
    1478        .dwattr $C$DW$112, DW_AT_decl_line(0x9a)
    1479        .dwattr $C$DW$112, DW_AT_decl_column(0x0d)
    1480$C$DW$113       .dwtag  DW_TAG_member
    1481        .dwattr $C$DW$113, DW_AT_type(*$C$DW$T$11)
    1482        .dwattr $C$DW$113, DW_AT_name("PRU1_DMEM_PE")
    1483        .dwattr $C$DW$113, DW_AT_TI_symbol_name("PRU1_DMEM_PE")
    1484        .dwattr $C$DW$113, DW_AT_bit_offset(0x10), DW_AT_bit_size(0x04)
    1485        .dwattr $C$DW$113, DW_AT_data_member_location[DW_OP_plus_uconst 0x0]
    1486        .dwattr $C$DW$113, DW_AT_accessibility(DW_ACCESS_public)
    1487        .dwattr $C$DW$113, DW_AT_decl_file("/usr/lib/ti/pru-software-support-package/include/am572x_2_
    1488        .dwattr $C$DW$113, DW_AT_decl_line(0x9b)
    1489        .dwattr $C$DW$113, DW_AT_decl_column(0x0d)
    1490$C$DW$114       .dwtag  DW_TAG_member
    1491        .dwattr $C$DW$114, DW_AT_type(*$C$DW$T$11)
    1492        .dwattr $C$DW$114, DW_AT_name("RAM_PE")
    1493        .dwattr $C$DW$114, DW_AT_TI_symbol_name("RAM_PE")
    1494        .dwattr $C$DW$114, DW_AT_bit_offset(0x0c), DW_AT_bit_size(0x04)
    1495        .dwattr $C$DW$114, DW_AT_data_member_location[DW_OP_plus_uconst 0x0]
    1496        .dwattr $C$DW$114, DW_AT_accessibility(DW_ACCESS_public)
    1497        .dwattr $C$DW$114, DW_AT_decl_file("/usr/lib/ti/pru-software-support-package/include/am572x_2_
    1498        .dwattr $C$DW$114, DW_AT_decl_line(0x9c)
    1499        .dwattr $C$DW$114, DW_AT_decl_column(0x0d)
    1500$C$DW$115       .dwtag  DW_TAG_member
    1501        .dwattr $C$DW$115, DW_AT_type(*$C$DW$T$11)
    1502        .dwattr $C$DW$115, DW_AT_name("rsvd20")
    1503        .dwattr $C$DW$115, DW_AT_TI_symbol_name("rsvd20")
    1504        .dwattr $C$DW$115, DW_AT_bit_offset(0x00), DW_AT_bit_size(0x0c)
    1505        .dwattr $C$DW$115, DW_AT_data_member_location[DW_OP_plus_uconst 0x0]
    1506        .dwattr $C$DW$115, DW_AT_accessibility(DW_ACCESS_public)
    1507        .dwattr $C$DW$115, DW_AT_decl_file("/usr/lib/ti/pru-software-support-package/include/am572x_2_
    1508        .dwattr $C$DW$115, DW_AT_decl_line(0x9d)
    1509        .dwattr $C$DW$115, DW_AT_decl_column(0x0d)
    1510        .dwendtag $C$DW$T$25
    1511
    1512        .dwattr $C$DW$T$25, DW_AT_decl_file("/usr/lib/ti/pru-software-support-package/include/am572x_2
    1513        .dwattr $C$DW$T$25, DW_AT_decl_line(0x97)
    1514        .dwattr $C$DW$T$25, DW_AT_decl_column(0x14)
    1515$C$DW$T$125     .dwtag  DW_TAG_volatile_type
    1516        .dwattr $C$DW$T$125, DW_AT_type(*$C$DW$T$25)
    1517
    1518$C$DW$T$26      .dwtag  DW_TAG_structure_type
    1519        .dwattr $C$DW$T$26, DW_AT_byte_size(0x04)
    1520$C$DW$116       .dwtag  DW_TAG_member
    1521        .dwattr $C$DW$116, DW_AT_type(*$C$DW$T$11)
PRU Assembler Unix v2.1.5 Sat Jul  3 21:31:23 2021

Tools Copyright (c) 2012-2017 Texas Instruments Incorporated
/home/debian/BBAI-SHARED-MEM/pru_codes/tmp/main.asm                  PAGE   29

    1522        .dwattr $C$DW$116, DW_AT_name("PRU0_IMEM_PE_SET")
    1523        .dwattr $C$DW$116, DW_AT_TI_symbol_name("PRU0_IMEM_PE_SET")
    1524        .dwattr $C$DW$116, DW_AT_bit_offset(0x1c), DW_AT_bit_size(0x04)
    1525        .dwattr $C$DW$116, DW_AT_data_member_location[DW_OP_plus_uconst 0x0]
    1526        .dwattr $C$DW$116, DW_AT_accessibility(DW_ACCESS_public)
    1527        .dwattr $C$DW$116, DW_AT_decl_file("/usr/lib/ti/pru-software-support-package/include/am572x_2_
    1528        .dwattr $C$DW$116, DW_AT_decl_line(0xa6)
    1529        .dwattr $C$DW$116, DW_AT_decl_column(0x0d)
    1530$C$DW$117       .dwtag  DW_TAG_member
    1531        .dwattr $C$DW$117, DW_AT_type(*$C$DW$T$11)
    1532        .dwattr $C$DW$117, DW_AT_name("PRU0_DMEM_PE_SET")
    1533        .dwattr $C$DW$117, DW_AT_TI_symbol_name("PRU0_DMEM_PE_SET")
    1534        .dwattr $C$DW$117, DW_AT_bit_offset(0x18), DW_AT_bit_size(0x04)
    1535        .dwattr $C$DW$117, DW_AT_data_member_location[DW_OP_plus_uconst 0x0]
    1536        .dwattr $C$DW$117, DW_AT_accessibility(DW_ACCESS_public)
    1537        .dwattr $C$DW$117, DW_AT_decl_file("/usr/lib/ti/pru-software-support-package/include/am572x_2_
    1538        .dwattr $C$DW$117, DW_AT_decl_line(0xa7)
    1539        .dwattr $C$DW$117, DW_AT_decl_column(0x0d)
    1540$C$DW$118       .dwtag  DW_TAG_member
    1541        .dwattr $C$DW$118, DW_AT_type(*$C$DW$T$11)
    1542        .dwattr $C$DW$118, DW_AT_name("PRU1_IMEM_PE_SET")
    1543        .dwattr $C$DW$118, DW_AT_TI_symbol_name("PRU1_IMEM_PE_SET")
    1544        .dwattr $C$DW$118, DW_AT_bit_offset(0x14), DW_AT_bit_size(0x04)
    1545        .dwattr $C$DW$118, DW_AT_data_member_location[DW_OP_plus_uconst 0x0]
    1546        .dwattr $C$DW$118, DW_AT_accessibility(DW_ACCESS_public)
    1547        .dwattr $C$DW$118, DW_AT_decl_file("/usr/lib/ti/pru-software-support-package/include/am572x_2_
    1548        .dwattr $C$DW$118, DW_AT_decl_line(0xa8)
    1549        .dwattr $C$DW$118, DW_AT_decl_column(0x0d)
    1550$C$DW$119       .dwtag  DW_TAG_member
    1551        .dwattr $C$DW$119, DW_AT_type(*$C$DW$T$11)
    1552        .dwattr $C$DW$119, DW_AT_name("PRU1_DMEM_PE_SET")
    1553        .dwattr $C$DW$119, DW_AT_TI_symbol_name("PRU1_DMEM_PE_SET")
    1554        .dwattr $C$DW$119, DW_AT_bit_offset(0x10), DW_AT_bit_size(0x04)
    1555        .dwattr $C$DW$119, DW_AT_data_member_location[DW_OP_plus_uconst 0x0]
    1556        .dwattr $C$DW$119, DW_AT_accessibility(DW_ACCESS_public)
    1557        .dwattr $C$DW$119, DW_AT_decl_file("/usr/lib/ti/pru-software-support-package/include/am572x_2_
    1558        .dwattr $C$DW$119, DW_AT_decl_line(0xa9)
    1559        .dwattr $C$DW$119, DW_AT_decl_column(0x0d)
    1560$C$DW$120       .dwtag  DW_TAG_member
    1561        .dwattr $C$DW$120, DW_AT_type(*$C$DW$T$11)
    1562        .dwattr $C$DW$120, DW_AT_name("RAM_PE_SET")
    1563        .dwattr $C$DW$120, DW_AT_TI_symbol_name("RAM_PE_SET")
    1564        .dwattr $C$DW$120, DW_AT_bit_offset(0x0c), DW_AT_bit_size(0x04)
    1565        .dwattr $C$DW$120, DW_AT_data_member_location[DW_OP_plus_uconst 0x0]
    1566        .dwattr $C$DW$120, DW_AT_accessibility(DW_ACCESS_public)
    1567        .dwattr $C$DW$120, DW_AT_decl_file("/usr/lib/ti/pru-software-support-package/include/am572x_2_
    1568        .dwattr $C$DW$120, DW_AT_decl_line(0xaa)
    1569        .dwattr $C$DW$120, DW_AT_decl_column(0x0d)
    1570$C$DW$121       .dwtag  DW_TAG_member
    1571        .dwattr $C$DW$121, DW_AT_type(*$C$DW$T$11)
    1572        .dwattr $C$DW$121, DW_AT_name("rsvd20")
    1573        .dwattr $C$DW$121, DW_AT_TI_symbol_name("rsvd20")
    1574        .dwattr $C$DW$121, DW_AT_bit_offset(0x00), DW_AT_bit_size(0x0c)
    1575        .dwattr $C$DW$121, DW_AT_data_member_location[DW_OP_plus_uconst 0x0]
    1576        .dwattr $C$DW$121, DW_AT_accessibility(DW_ACCESS_public)
PRU Assembler Unix v2.1.5 Sat Jul  3 21:31:23 2021

Tools Copyright (c) 2012-2017 Texas Instruments Incorporated
/home/debian/BBAI-SHARED-MEM/pru_codes/tmp/main.asm                  PAGE   30

    1577        .dwattr $C$DW$121, DW_AT_decl_file("/usr/lib/ti/pru-software-support-package/include/am572x_2_
    1578        .dwattr $C$DW$121, DW_AT_decl_line(0xab)
    1579        .dwattr $C$DW$121, DW_AT_decl_column(0x0d)
    1580        .dwendtag $C$DW$T$26
    1581
    1582        .dwattr $C$DW$T$26, DW_AT_decl_file("/usr/lib/ti/pru-software-support-package/include/am572x_2
    1583        .dwattr $C$DW$T$26, DW_AT_decl_line(0xa5)
    1584        .dwattr $C$DW$T$26, DW_AT_decl_column(0x13)
    1585$C$DW$T$127     .dwtag  DW_TAG_volatile_type
    1586        .dwattr $C$DW$T$127, DW_AT_type(*$C$DW$T$26)
    1587
    1588$C$DW$T$27      .dwtag  DW_TAG_structure_type
    1589        .dwattr $C$DW$T$27, DW_AT_byte_size(0x04)
    1590$C$DW$122       .dwtag  DW_TAG_member
    1591        .dwattr $C$DW$122, DW_AT_type(*$C$DW$T$11)
    1592        .dwattr $C$DW$122, DW_AT_name("PRU0_IMEM_PE_CLR")
    1593        .dwattr $C$DW$122, DW_AT_TI_symbol_name("PRU0_IMEM_PE_CLR")
    1594        .dwattr $C$DW$122, DW_AT_bit_offset(0x1c), DW_AT_bit_size(0x04)
    1595        .dwattr $C$DW$122, DW_AT_data_member_location[DW_OP_plus_uconst 0x0]
    1596        .dwattr $C$DW$122, DW_AT_accessibility(DW_ACCESS_public)
    1597        .dwattr $C$DW$122, DW_AT_decl_file("/usr/lib/ti/pru-software-support-package/include/am572x_2_
    1598        .dwattr $C$DW$122, DW_AT_decl_line(0xb5)
    1599        .dwattr $C$DW$122, DW_AT_decl_column(0x0d)
    1600$C$DW$123       .dwtag  DW_TAG_member
    1601        .dwattr $C$DW$123, DW_AT_type(*$C$DW$T$11)
    1602        .dwattr $C$DW$123, DW_AT_name("PRU0_DMEM_PE_CLR")
    1603        .dwattr $C$DW$123, DW_AT_TI_symbol_name("PRU0_DMEM_PE_CLR")
    1604        .dwattr $C$DW$123, DW_AT_bit_offset(0x18), DW_AT_bit_size(0x04)
    1605        .dwattr $C$DW$123, DW_AT_data_member_location[DW_OP_plus_uconst 0x0]
    1606        .dwattr $C$DW$123, DW_AT_accessibility(DW_ACCESS_public)
    1607        .dwattr $C$DW$123, DW_AT_decl_file("/usr/lib/ti/pru-software-support-package/include/am572x_2_
    1608        .dwattr $C$DW$123, DW_AT_decl_line(0xb6)
    1609        .dwattr $C$DW$123, DW_AT_decl_column(0x0d)
    1610$C$DW$124       .dwtag  DW_TAG_member
    1611        .dwattr $C$DW$124, DW_AT_type(*$C$DW$T$11)
    1612        .dwattr $C$DW$124, DW_AT_name("PRU1_IMEM_PE_CLR")
    1613        .dwattr $C$DW$124, DW_AT_TI_symbol_name("PRU1_IMEM_PE_CLR")
    1614        .dwattr $C$DW$124, DW_AT_bit_offset(0x14), DW_AT_bit_size(0x04)
    1615        .dwattr $C$DW$124, DW_AT_data_member_location[DW_OP_plus_uconst 0x0]
    1616        .dwattr $C$DW$124, DW_AT_accessibility(DW_ACCESS_public)
    1617        .dwattr $C$DW$124, DW_AT_decl_file("/usr/lib/ti/pru-software-support-package/include/am572x_2_
    1618        .dwattr $C$DW$124, DW_AT_decl_line(0xb7)
    1619        .dwattr $C$DW$124, DW_AT_decl_column(0x0d)
    1620$C$DW$125       .dwtag  DW_TAG_member
    1621        .dwattr $C$DW$125, DW_AT_type(*$C$DW$T$11)
    1622        .dwattr $C$DW$125, DW_AT_name("PRU1_DMEM_PE_CLR")
    1623        .dwattr $C$DW$125, DW_AT_TI_symbol_name("PRU1_DMEM_PE_CLR")
    1624        .dwattr $C$DW$125, DW_AT_bit_offset(0x10), DW_AT_bit_size(0x04)
    1625        .dwattr $C$DW$125, DW_AT_data_member_location[DW_OP_plus_uconst 0x0]
    1626        .dwattr $C$DW$125, DW_AT_accessibility(DW_ACCESS_public)
    1627        .dwattr $C$DW$125, DW_AT_decl_file("/usr/lib/ti/pru-software-support-package/include/am572x_2_
    1628        .dwattr $C$DW$125, DW_AT_decl_line(0xb8)
    1629        .dwattr $C$DW$125, DW_AT_decl_column(0x0d)
    1630$C$DW$126       .dwtag  DW_TAG_member
    1631        .dwattr $C$DW$126, DW_AT_type(*$C$DW$T$11)
PRU Assembler Unix v2.1.5 Sat Jul  3 21:31:23 2021

Tools Copyright (c) 2012-2017 Texas Instruments Incorporated
/home/debian/BBAI-SHARED-MEM/pru_codes/tmp/main.asm                  PAGE   31

    1632        .dwattr $C$DW$126, DW_AT_name("rsvd16")
    1633        .dwattr $C$DW$126, DW_AT_TI_symbol_name("rsvd16")
    1634        .dwattr $C$DW$126, DW_AT_bit_offset(0x00), DW_AT_bit_size(0x10)
    1635        .dwattr $C$DW$126, DW_AT_data_member_location[DW_OP_plus_uconst 0x0]
    1636        .dwattr $C$DW$126, DW_AT_accessibility(DW_ACCESS_public)
    1637        .dwattr $C$DW$126, DW_AT_decl_file("/usr/lib/ti/pru-software-support-package/include/am572x_2_
    1638        .dwattr $C$DW$126, DW_AT_decl_line(0xb9)
    1639        .dwattr $C$DW$126, DW_AT_decl_column(0x0d)
    1640        .dwendtag $C$DW$T$27
    1641
    1642        .dwattr $C$DW$T$27, DW_AT_decl_file("/usr/lib/ti/pru-software-support-package/include/am572x_2
    1643        .dwattr $C$DW$T$27, DW_AT_decl_line(0xb4)
    1644        .dwattr $C$DW$T$27, DW_AT_decl_column(0x13)
    1645$C$DW$T$129     .dwtag  DW_TAG_volatile_type
    1646        .dwattr $C$DW$T$129, DW_AT_type(*$C$DW$T$27)
    1647
    1648$C$DW$T$28      .dwtag  DW_TAG_structure_type
    1649        .dwattr $C$DW$T$28, DW_AT_byte_size(0x04)
    1650$C$DW$127       .dwtag  DW_TAG_member
    1651        .dwattr $C$DW$127, DW_AT_type(*$C$DW$T$11)
    1652        .dwattr $C$DW$127, DW_AT_name("PMAO_PRU0")
    1653        .dwattr $C$DW$127, DW_AT_TI_symbol_name("PMAO_PRU0")
    1654        .dwattr $C$DW$127, DW_AT_bit_offset(0x1f), DW_AT_bit_size(0x01)
    1655        .dwattr $C$DW$127, DW_AT_data_member_location[DW_OP_plus_uconst 0x0]
    1656        .dwattr $C$DW$127, DW_AT_accessibility(DW_ACCESS_public)
    1657        .dwattr $C$DW$127, DW_AT_decl_file("/usr/lib/ti/pru-software-support-package/include/am572x_2_
    1658        .dwattr $C$DW$127, DW_AT_decl_line(0xc6)
    1659        .dwattr $C$DW$127, DW_AT_decl_column(0x0d)
    1660$C$DW$128       .dwtag  DW_TAG_member
    1661        .dwattr $C$DW$128, DW_AT_type(*$C$DW$T$11)
    1662        .dwattr $C$DW$128, DW_AT_name("PMAO_PRU1")
    1663        .dwattr $C$DW$128, DW_AT_TI_symbol_name("PMAO_PRU1")
    1664        .dwattr $C$DW$128, DW_AT_bit_offset(0x1e), DW_AT_bit_size(0x01)
    1665        .dwattr $C$DW$128, DW_AT_data_member_location[DW_OP_plus_uconst 0x0]
    1666        .dwattr $C$DW$128, DW_AT_accessibility(DW_ACCESS_public)
    1667        .dwattr $C$DW$128, DW_AT_decl_file("/usr/lib/ti/pru-software-support-package/include/am572x_2_
    1668        .dwattr $C$DW$128, DW_AT_decl_line(0xc7)
    1669        .dwattr $C$DW$128, DW_AT_decl_column(0x0d)
    1670$C$DW$129       .dwtag  DW_TAG_member
    1671        .dwattr $C$DW$129, DW_AT_type(*$C$DW$T$11)
    1672        .dwattr $C$DW$129, DW_AT_name("rsvd2")
    1673        .dwattr $C$DW$129, DW_AT_TI_symbol_name("rsvd2")
    1674        .dwattr $C$DW$129, DW_AT_bit_offset(0x00), DW_AT_bit_size(0x1e)
    1675        .dwattr $C$DW$129, DW_AT_data_member_location[DW_OP_plus_uconst 0x0]
    1676        .dwattr $C$DW$129, DW_AT_accessibility(DW_ACCESS_public)
    1677        .dwattr $C$DW$129, DW_AT_decl_file("/usr/lib/ti/pru-software-support-package/include/am572x_2_
    1678        .dwattr $C$DW$129, DW_AT_decl_line(0xc8)
    1679        .dwattr $C$DW$129, DW_AT_decl_column(0x0d)
    1680        .dwendtag $C$DW$T$28
    1681
    1682        .dwattr $C$DW$T$28, DW_AT_decl_file("/usr/lib/ti/pru-software-support-package/include/am572x_2
    1683        .dwattr $C$DW$T$28, DW_AT_decl_line(0xc5)
    1684        .dwattr $C$DW$T$28, DW_AT_decl_column(0x13)
    1685$C$DW$T$131     .dwtag  DW_TAG_volatile_type
    1686        .dwattr $C$DW$T$131, DW_AT_type(*$C$DW$T$28)
PRU Assembler Unix v2.1.5 Sat Jul  3 21:31:23 2021

Tools Copyright (c) 2012-2017 Texas Instruments Incorporated
/home/debian/BBAI-SHARED-MEM/pru_codes/tmp/main.asm                  PAGE   32

    1687
    1688$C$DW$T$29      .dwtag  DW_TAG_structure_type
    1689        .dwattr $C$DW$T$29, DW_AT_byte_size(0x04)
    1690$C$DW$130       .dwtag  DW_TAG_member
    1691        .dwattr $C$DW$130, DW_AT_type(*$C$DW$T$11)
    1692        .dwattr $C$DW$130, DW_AT_name("OCP_EN")
    1693        .dwattr $C$DW$130, DW_AT_TI_symbol_name("OCP_EN")
    1694        .dwattr $C$DW$130, DW_AT_bit_offset(0x1f), DW_AT_bit_size(0x01)
    1695        .dwattr $C$DW$130, DW_AT_data_member_location[DW_OP_plus_uconst 0x0]
    1696        .dwattr $C$DW$130, DW_AT_accessibility(DW_ACCESS_public)
    1697        .dwattr $C$DW$130, DW_AT_decl_file("/usr/lib/ti/pru-software-support-package/include/am572x_2_
    1698        .dwattr $C$DW$130, DW_AT_decl_line(0xd5)
    1699        .dwattr $C$DW$130, DW_AT_decl_column(0x0d)
    1700$C$DW$131       .dwtag  DW_TAG_member
    1701        .dwattr $C$DW$131, DW_AT_type(*$C$DW$T$11)
    1702        .dwattr $C$DW$131, DW_AT_name("rsvd1")
    1703        .dwattr $C$DW$131, DW_AT_TI_symbol_name("rsvd1")
    1704        .dwattr $C$DW$131, DW_AT_bit_offset(0x00), DW_AT_bit_size(0x1f)
    1705        .dwattr $C$DW$131, DW_AT_data_member_location[DW_OP_plus_uconst 0x0]
    1706        .dwattr $C$DW$131, DW_AT_accessibility(DW_ACCESS_public)
    1707        .dwattr $C$DW$131, DW_AT_decl_file("/usr/lib/ti/pru-software-support-package/include/am572x_2_
    1708        .dwattr $C$DW$131, DW_AT_decl_line(0xd6)
    1709        .dwattr $C$DW$131, DW_AT_decl_column(0x0d)
    1710        .dwendtag $C$DW$T$29
    1711
    1712        .dwattr $C$DW$T$29, DW_AT_decl_file("/usr/lib/ti/pru-software-support-package/include/am572x_2
    1713        .dwattr $C$DW$T$29, DW_AT_decl_line(0xd4)
    1714        .dwattr $C$DW$T$29, DW_AT_decl_column(0x13)
    1715$C$DW$T$133     .dwtag  DW_TAG_volatile_type
    1716        .dwattr $C$DW$T$133, DW_AT_type(*$C$DW$T$29)
    1717
    1718$C$DW$T$30      .dwtag  DW_TAG_structure_type
    1719        .dwattr $C$DW$T$30, DW_AT_byte_size(0x04)
    1720$C$DW$132       .dwtag  DW_TAG_member
    1721        .dwattr $C$DW$132, DW_AT_type(*$C$DW$T$11)
    1722        .dwattr $C$DW$132, DW_AT_name("PRU1_PAD_HP_EN")
    1723        .dwattr $C$DW$132, DW_AT_TI_symbol_name("PRU1_PAD_HP_EN")
    1724        .dwattr $C$DW$132, DW_AT_bit_offset(0x1f), DW_AT_bit_size(0x01)
    1725        .dwattr $C$DW$132, DW_AT_data_member_location[DW_OP_plus_uconst 0x0]
    1726        .dwattr $C$DW$132, DW_AT_accessibility(DW_ACCESS_public)
    1727        .dwattr $C$DW$132, DW_AT_decl_file("/usr/lib/ti/pru-software-support-package/include/am572x_2_
    1728        .dwattr $C$DW$132, DW_AT_decl_line(0xe0)
    1729        .dwattr $C$DW$132, DW_AT_decl_column(0x0d)
    1730$C$DW$133       .dwtag  DW_TAG_member
    1731        .dwattr $C$DW$133, DW_AT_type(*$C$DW$T$11)
    1732        .dwattr $C$DW$133, DW_AT_name("XFR_SHIFT_EN")
    1733        .dwattr $C$DW$133, DW_AT_TI_symbol_name("XFR_SHIFT_EN")
    1734        .dwattr $C$DW$133, DW_AT_bit_offset(0x1e), DW_AT_bit_size(0x01)
    1735        .dwattr $C$DW$133, DW_AT_data_member_location[DW_OP_plus_uconst 0x0]
    1736        .dwattr $C$DW$133, DW_AT_accessibility(DW_ACCESS_public)
    1737        .dwattr $C$DW$133, DW_AT_decl_file("/usr/lib/ti/pru-software-support-package/include/am572x_2_
    1738        .dwattr $C$DW$133, DW_AT_decl_line(0xe1)
    1739        .dwattr $C$DW$133, DW_AT_decl_column(0x0d)
    1740$C$DW$134       .dwtag  DW_TAG_member
    1741        .dwattr $C$DW$134, DW_AT_type(*$C$DW$T$11)
PRU Assembler Unix v2.1.5 Sat Jul  3 21:31:23 2021

Tools Copyright (c) 2012-2017 Texas Instruments Incorporated
/home/debian/BBAI-SHARED-MEM/pru_codes/tmp/main.asm                  PAGE   33

    1742        .dwattr $C$DW$134, DW_AT_name("rsvd2")
    1743        .dwattr $C$DW$134, DW_AT_TI_symbol_name("rsvd2")
    1744        .dwattr $C$DW$134, DW_AT_bit_offset(0x00), DW_AT_bit_size(0x1e)
    1745        .dwattr $C$DW$134, DW_AT_data_member_location[DW_OP_plus_uconst 0x0]
    1746        .dwattr $C$DW$134, DW_AT_accessibility(DW_ACCESS_public)
    1747        .dwattr $C$DW$134, DW_AT_decl_file("/usr/lib/ti/pru-software-support-package/include/am572x_2_
    1748        .dwattr $C$DW$134, DW_AT_decl_line(0xe2)
    1749        .dwattr $C$DW$134, DW_AT_decl_column(0x0d)
    1750        .dwendtag $C$DW$T$30
    1751
    1752        .dwattr $C$DW$T$30, DW_AT_decl_file("/usr/lib/ti/pru-software-support-package/include/am572x_2
    1753        .dwattr $C$DW$T$30, DW_AT_decl_line(0xdf)
    1754        .dwattr $C$DW$T$30, DW_AT_decl_column(0x13)
    1755$C$DW$T$135     .dwtag  DW_TAG_volatile_type
    1756        .dwattr $C$DW$T$135, DW_AT_type(*$C$DW$T$30)
    1757
    1758$C$DW$T$31      .dwtag  DW_TAG_structure_type
    1759        .dwattr $C$DW$T$31, DW_AT_byte_size(0x04)
    1760$C$DW$135       .dwtag  DW_TAG_member
    1761        .dwattr $C$DW$135, DW_AT_type(*$C$DW$T$11)
    1762        .dwattr $C$DW$135, DW_AT_name("PIN_MUX_SEL")
    1763        .dwattr $C$DW$135, DW_AT_TI_symbol_name("PIN_MUX_SEL")
    1764        .dwattr $C$DW$135, DW_AT_bit_offset(0x18), DW_AT_bit_size(0x08)
    1765        .dwattr $C$DW$135, DW_AT_data_member_location[DW_OP_plus_uconst 0x0]
    1766        .dwattr $C$DW$135, DW_AT_accessibility(DW_ACCESS_public)
    1767        .dwattr $C$DW$135, DW_AT_decl_file("/usr/lib/ti/pru-software-support-package/include/am572x_2_
    1768        .dwattr $C$DW$135, DW_AT_decl_line(0xee)
    1769        .dwattr $C$DW$135, DW_AT_decl_column(0x0d)
    1770$C$DW$136       .dwtag  DW_TAG_member
    1771        .dwattr $C$DW$136, DW_AT_type(*$C$DW$T$11)
    1772        .dwattr $C$DW$136, DW_AT_name("PWM0_REMAP_EN")
    1773        .dwattr $C$DW$136, DW_AT_TI_symbol_name("PWM0_REMAP_EN")
    1774        .dwattr $C$DW$136, DW_AT_bit_offset(0x17), DW_AT_bit_size(0x01)
    1775        .dwattr $C$DW$136, DW_AT_data_member_location[DW_OP_plus_uconst 0x0]
    1776        .dwattr $C$DW$136, DW_AT_accessibility(DW_ACCESS_public)
    1777        .dwattr $C$DW$136, DW_AT_decl_file("/usr/lib/ti/pru-software-support-package/include/am572x_2_
    1778        .dwattr $C$DW$136, DW_AT_decl_line(0xef)
    1779        .dwattr $C$DW$136, DW_AT_decl_column(0x0d)
    1780$C$DW$137       .dwtag  DW_TAG_member
    1781        .dwattr $C$DW$137, DW_AT_type(*$C$DW$T$11)
    1782        .dwattr $C$DW$137, DW_AT_name("PWM3_REMAP_EN")
    1783        .dwattr $C$DW$137, DW_AT_TI_symbol_name("PWM3_REMAP_EN")
    1784        .dwattr $C$DW$137, DW_AT_bit_offset(0x16), DW_AT_bit_size(0x01)
    1785        .dwattr $C$DW$137, DW_AT_data_member_location[DW_OP_plus_uconst 0x0]
    1786        .dwattr $C$DW$137, DW_AT_accessibility(DW_ACCESS_public)
    1787        .dwattr $C$DW$137, DW_AT_decl_file("/usr/lib/ti/pru-software-support-package/include/am572x_2_
    1788        .dwattr $C$DW$137, DW_AT_decl_line(0xf0)
    1789        .dwattr $C$DW$137, DW_AT_decl_column(0x0d)
    1790$C$DW$138       .dwtag  DW_TAG_member
    1791        .dwattr $C$DW$138, DW_AT_type(*$C$DW$T$11)
    1792        .dwattr $C$DW$138, DW_AT_name("rsvd2")
    1793        .dwattr $C$DW$138, DW_AT_TI_symbol_name("rsvd2")
    1794        .dwattr $C$DW$138, DW_AT_bit_offset(0x00), DW_AT_bit_size(0x16)
    1795        .dwattr $C$DW$138, DW_AT_data_member_location[DW_OP_plus_uconst 0x0]
    1796        .dwattr $C$DW$138, DW_AT_accessibility(DW_ACCESS_public)
PRU Assembler Unix v2.1.5 Sat Jul  3 21:31:23 2021

Tools Copyright (c) 2012-2017 Texas Instruments Incorporated
/home/debian/BBAI-SHARED-MEM/pru_codes/tmp/main.asm                  PAGE   34

    1797        .dwattr $C$DW$138, DW_AT_decl_file("/usr/lib/ti/pru-software-support-package/include/am572x_2_
    1798        .dwattr $C$DW$138, DW_AT_decl_line(0xf1)
    1799        .dwattr $C$DW$138, DW_AT_decl_column(0x0d)
    1800        .dwendtag $C$DW$T$31
    1801
    1802        .dwattr $C$DW$T$31, DW_AT_decl_file("/usr/lib/ti/pru-software-support-package/include/am572x_2
    1803        .dwattr $C$DW$T$31, DW_AT_decl_line(0xed)
    1804        .dwattr $C$DW$T$31, DW_AT_decl_column(0x13)
    1805$C$DW$T$137     .dwtag  DW_TAG_volatile_type
    1806        .dwattr $C$DW$T$137, DW_AT_type(*$C$DW$T$31)
    1807
    1808$C$DW$T$35      .dwtag  DW_TAG_structure_type
    1809        .dwattr $C$DW$T$35, DW_AT_byte_size(0x44)
    1810$C$DW$139       .dwtag  DW_TAG_member
    1811        .dwattr $C$DW$139, DW_AT_type(*$C$DW$T$114)
    1812        .dwattr $C$DW$139, DW_AT_name("$P$T0")
    1813        .dwattr $C$DW$139, DW_AT_TI_symbol_name("$P$T0")
    1814        .dwattr $C$DW$139, DW_AT_data_member_location[DW_OP_plus_uconst 0x0]
    1815        .dwattr $C$DW$139, DW_AT_accessibility(DW_ACCESS_public)
    1816        .dwattr $C$DW$139, DW_AT_decl_file("/usr/lib/ti/pru-software-support-package/include/am572x_2_
    1817        .dwattr $C$DW$139, DW_AT_decl_line(0x29)
    1818        .dwattr $C$DW$139, DW_AT_decl_column(0x02)
    1819$C$DW$140       .dwtag  DW_TAG_member
    1820        .dwattr $C$DW$140, DW_AT_type(*$C$DW$T$116)
    1821        .dwattr $C$DW$140, DW_AT_name("$P$T1")
    1822        .dwattr $C$DW$140, DW_AT_TI_symbol_name("$P$T1")
    1823        .dwattr $C$DW$140, DW_AT_data_member_location[DW_OP_plus_uconst 0x4]
    1824        .dwattr $C$DW$140, DW_AT_accessibility(DW_ACCESS_public)
    1825        .dwattr $C$DW$140, DW_AT_decl_file("/usr/lib/ti/pru-software-support-package/include/am572x_2_
    1826        .dwattr $C$DW$140, DW_AT_decl_line(0x33)
    1827        .dwattr $C$DW$140, DW_AT_decl_column(0x02)
    1828$C$DW$141       .dwtag  DW_TAG_member
    1829        .dwattr $C$DW$141, DW_AT_type(*$C$DW$T$118)
    1830        .dwattr $C$DW$141, DW_AT_name("$P$T2")
    1831        .dwattr $C$DW$141, DW_AT_TI_symbol_name("$P$T2")
    1832        .dwattr $C$DW$141, DW_AT_data_member_location[DW_OP_plus_uconst 0x8]
    1833        .dwattr $C$DW$141, DW_AT_accessibility(DW_ACCESS_public)
    1834        .dwattr $C$DW$141, DW_AT_decl_file("/usr/lib/ti/pru-software-support-package/include/am572x_2_
    1835        .dwattr $C$DW$141, DW_AT_decl_line(0x41)
    1836        .dwattr $C$DW$141, DW_AT_decl_column(0x02)
    1837$C$DW$142       .dwtag  DW_TAG_member
    1838        .dwattr $C$DW$142, DW_AT_type(*$C$DW$T$120)
    1839        .dwattr $C$DW$142, DW_AT_name("$P$T3")
    1840        .dwattr $C$DW$142, DW_AT_TI_symbol_name("$P$T3")
    1841        .dwattr $C$DW$142, DW_AT_data_member_location[DW_OP_plus_uconst 0xc]
    1842        .dwattr $C$DW$142, DW_AT_accessibility(DW_ACCESS_public)
    1843        .dwattr $C$DW$142, DW_AT_decl_file("/usr/lib/ti/pru-software-support-package/include/am572x_2_
    1844        .dwattr $C$DW$142, DW_AT_decl_line(0x55)
    1845        .dwattr $C$DW$142, DW_AT_decl_column(0x02)
    1846$C$DW$143       .dwtag  DW_TAG_member
    1847        .dwattr $C$DW$143, DW_AT_type(*$C$DW$T$122)
    1848        .dwattr $C$DW$143, DW_AT_name("$P$T4")
    1849        .dwattr $C$DW$143, DW_AT_TI_symbol_name("$P$T4")
    1850        .dwattr $C$DW$143, DW_AT_data_member_location[DW_OP_plus_uconst 0x10]
    1851        .dwattr $C$DW$143, DW_AT_accessibility(DW_ACCESS_public)
PRU Assembler Unix v2.1.5 Sat Jul  3 21:31:23 2021

Tools Copyright (c) 2012-2017 Texas Instruments Incorporated
/home/debian/BBAI-SHARED-MEM/pru_codes/tmp/main.asm                  PAGE   35

    1852        .dwattr $C$DW$143, DW_AT_decl_file("/usr/lib/ti/pru-software-support-package/include/am572x_2_
    1853        .dwattr $C$DW$143, DW_AT_decl_line(0x69)
    1854        .dwattr $C$DW$143, DW_AT_decl_column(0x02)
    1855$C$DW$144       .dwtag  DW_TAG_member
    1856        .dwattr $C$DW$144, DW_AT_type(*$C$DW$T$124)
    1857        .dwattr $C$DW$144, DW_AT_name("$P$T5")
    1858        .dwattr $C$DW$144, DW_AT_TI_symbol_name("$P$T5")
    1859        .dwattr $C$DW$144, DW_AT_data_member_location[DW_OP_plus_uconst 0x14]
    1860        .dwattr $C$DW$144, DW_AT_accessibility(DW_ACCESS_public)
    1861        .dwattr $C$DW$144, DW_AT_decl_file("/usr/lib/ti/pru-software-support-package/include/am572x_2_
    1862        .dwattr $C$DW$144, DW_AT_decl_line(0x85)
    1863        .dwattr $C$DW$144, DW_AT_decl_column(0x02)
    1864$C$DW$145       .dwtag  DW_TAG_member
    1865        .dwattr $C$DW$145, DW_AT_type(*$C$DW$T$126)
    1866        .dwattr $C$DW$145, DW_AT_name("$P$T6")
    1867        .dwattr $C$DW$145, DW_AT_TI_symbol_name("$P$T6")
    1868        .dwattr $C$DW$145, DW_AT_data_member_location[DW_OP_plus_uconst 0x18]
    1869        .dwattr $C$DW$145, DW_AT_accessibility(DW_ACCESS_public)
    1870        .dwattr $C$DW$145, DW_AT_decl_file("/usr/lib/ti/pru-software-support-package/include/am572x_2_
    1871        .dwattr $C$DW$145, DW_AT_decl_line(0x94)
    1872        .dwattr $C$DW$145, DW_AT_decl_column(0x02)
    1873$C$DW$146       .dwtag  DW_TAG_member
    1874        .dwattr $C$DW$146, DW_AT_type(*$C$DW$T$128)
    1875        .dwattr $C$DW$146, DW_AT_name("$P$T7")
    1876        .dwattr $C$DW$146, DW_AT_TI_symbol_name("$P$T7")
    1877        .dwattr $C$DW$146, DW_AT_data_member_location[DW_OP_plus_uconst 0x1c]
    1878        .dwattr $C$DW$146, DW_AT_accessibility(DW_ACCESS_public)
    1879        .dwattr $C$DW$146, DW_AT_decl_file("/usr/lib/ti/pru-software-support-package/include/am572x_2_
    1880        .dwattr $C$DW$146, DW_AT_decl_line(0xa2)
    1881        .dwattr $C$DW$146, DW_AT_decl_column(0x02)
    1882$C$DW$147       .dwtag  DW_TAG_member
    1883        .dwattr $C$DW$147, DW_AT_type(*$C$DW$T$130)
    1884        .dwattr $C$DW$147, DW_AT_name("$P$T8")
    1885        .dwattr $C$DW$147, DW_AT_TI_symbol_name("$P$T8")
    1886        .dwattr $C$DW$147, DW_AT_data_member_location[DW_OP_plus_uconst 0x20]
    1887        .dwattr $C$DW$147, DW_AT_accessibility(DW_ACCESS_public)
    1888        .dwattr $C$DW$147, DW_AT_decl_file("/usr/lib/ti/pru-software-support-package/include/am572x_2_
    1889        .dwattr $C$DW$147, DW_AT_decl_line(0xb1)
    1890        .dwattr $C$DW$147, DW_AT_decl_column(0x02)
    1891$C$DW$148       .dwtag  DW_TAG_member
    1892        .dwattr $C$DW$148, DW_AT_type(*$C$DW$T$32)
    1893        .dwattr $C$DW$148, DW_AT_name("rsvd24")
    1894        .dwattr $C$DW$148, DW_AT_TI_symbol_name("rsvd24")
    1895        .dwattr $C$DW$148, DW_AT_data_member_location[DW_OP_plus_uconst 0x24]
    1896        .dwattr $C$DW$148, DW_AT_accessibility(DW_ACCESS_public)
    1897        .dwattr $C$DW$148, DW_AT_decl_file("/usr/lib/ti/pru-software-support-package/include/am572x_2_
    1898        .dwattr $C$DW$148, DW_AT_decl_line(0xbe)
    1899        .dwattr $C$DW$148, DW_AT_decl_column(0x0b)
    1900$C$DW$149       .dwtag  DW_TAG_member
    1901        .dwattr $C$DW$149, DW_AT_type(*$C$DW$T$132)
    1902        .dwattr $C$DW$149, DW_AT_name("$P$T9")
    1903        .dwattr $C$DW$149, DW_AT_TI_symbol_name("$P$T9")
    1904        .dwattr $C$DW$149, DW_AT_data_member_location[DW_OP_plus_uconst 0x28]
    1905        .dwattr $C$DW$149, DW_AT_accessibility(DW_ACCESS_public)
    1906        .dwattr $C$DW$149, DW_AT_decl_file("/usr/lib/ti/pru-software-support-package/include/am572x_2_
PRU Assembler Unix v2.1.5 Sat Jul  3 21:31:23 2021

Tools Copyright (c) 2012-2017 Texas Instruments Incorporated
/home/debian/BBAI-SHARED-MEM/pru_codes/tmp/main.asm                  PAGE   36

    1907        .dwattr $C$DW$149, DW_AT_decl_line(0xc2)
    1908        .dwattr $C$DW$149, DW_AT_decl_column(0x02)
    1909$C$DW$150       .dwtag  DW_TAG_member
    1910        .dwattr $C$DW$150, DW_AT_type(*$C$DW$T$33)
    1911        .dwattr $C$DW$150, DW_AT_name("rsvd2c")
    1912        .dwattr $C$DW$150, DW_AT_TI_symbol_name("rsvd2c")
    1913        .dwattr $C$DW$150, DW_AT_data_member_location[DW_OP_plus_uconst 0x2c]
    1914        .dwattr $C$DW$150, DW_AT_accessibility(DW_ACCESS_public)
    1915        .dwattr $C$DW$150, DW_AT_decl_file("/usr/lib/ti/pru-software-support-package/include/am572x_2_
    1916        .dwattr $C$DW$150, DW_AT_decl_line(0xcd)
    1917        .dwattr $C$DW$150, DW_AT_decl_column(0x0b)
    1918$C$DW$151       .dwtag  DW_TAG_member
    1919        .dwattr $C$DW$151, DW_AT_type(*$C$DW$T$134)
    1920        .dwattr $C$DW$151, DW_AT_name("$P$T10")
    1921        .dwattr $C$DW$151, DW_AT_TI_symbol_name("$P$T10")
    1922        .dwattr $C$DW$151, DW_AT_data_member_location[DW_OP_plus_uconst 0x30]
    1923        .dwattr $C$DW$151, DW_AT_accessibility(DW_ACCESS_public)
    1924        .dwattr $C$DW$151, DW_AT_decl_file("/usr/lib/ti/pru-software-support-package/include/am572x_2_
    1925        .dwattr $C$DW$151, DW_AT_decl_line(0xd1)
    1926        .dwattr $C$DW$151, DW_AT_decl_column(0x02)
    1927$C$DW$152       .dwtag  DW_TAG_member
    1928        .dwattr $C$DW$152, DW_AT_type(*$C$DW$T$136)
    1929        .dwattr $C$DW$152, DW_AT_name("$P$T11")
    1930        .dwattr $C$DW$152, DW_AT_TI_symbol_name("$P$T11")
    1931        .dwattr $C$DW$152, DW_AT_data_member_location[DW_OP_plus_uconst 0x34]
    1932        .dwattr $C$DW$152, DW_AT_accessibility(DW_ACCESS_public)
    1933        .dwattr $C$DW$152, DW_AT_decl_file("/usr/lib/ti/pru-software-support-package/include/am572x_2_
    1934        .dwattr $C$DW$152, DW_AT_decl_line(0xdc)
    1935        .dwattr $C$DW$152, DW_AT_decl_column(0x02)
    1936$C$DW$153       .dwtag  DW_TAG_member
    1937        .dwattr $C$DW$153, DW_AT_type(*$C$DW$T$34)
    1938        .dwattr $C$DW$153, DW_AT_name("rsvd38")
    1939        .dwattr $C$DW$153, DW_AT_TI_symbol_name("rsvd38")
    1940        .dwattr $C$DW$153, DW_AT_data_member_location[DW_OP_plus_uconst 0x38]
    1941        .dwattr $C$DW$153, DW_AT_accessibility(DW_ACCESS_public)
    1942        .dwattr $C$DW$153, DW_AT_decl_file("/usr/lib/ti/pru-software-support-package/include/am572x_2_
    1943        .dwattr $C$DW$153, DW_AT_decl_line(0xe7)
    1944        .dwattr $C$DW$153, DW_AT_decl_column(0x0b)
    1945$C$DW$154       .dwtag  DW_TAG_member
    1946        .dwattr $C$DW$154, DW_AT_type(*$C$DW$T$138)
    1947        .dwattr $C$DW$154, DW_AT_name("$P$T12")
    1948        .dwattr $C$DW$154, DW_AT_TI_symbol_name("$P$T12")
    1949        .dwattr $C$DW$154, DW_AT_data_member_location[DW_OP_plus_uconst 0x40]
    1950        .dwattr $C$DW$154, DW_AT_accessibility(DW_ACCESS_public)
    1951        .dwattr $C$DW$154, DW_AT_decl_file("/usr/lib/ti/pru-software-support-package/include/am572x_2_
    1952        .dwattr $C$DW$154, DW_AT_decl_line(0xea)
    1953        .dwattr $C$DW$154, DW_AT_decl_column(0x02)
    1954        .dwendtag $C$DW$T$35
    1955
    1956        .dwattr $C$DW$T$35, DW_AT_decl_file("/usr/lib/ti/pru-software-support-package/include/am572x_2
    1957        .dwattr $C$DW$T$35, DW_AT_decl_line(0x26)
    1958        .dwattr $C$DW$T$35, DW_AT_decl_column(0x10)
    1959$C$DW$T$294     .dwtag  DW_TAG_typedef, DW_AT_name("pruCfg")
    1960        .dwattr $C$DW$T$294, DW_AT_type(*$C$DW$T$35)
    1961        .dwattr $C$DW$T$294, DW_AT_language(DW_LANG_C)
PRU Assembler Unix v2.1.5 Sat Jul  3 21:31:23 2021

Tools Copyright (c) 2012-2017 Texas Instruments Incorporated
/home/debian/BBAI-SHARED-MEM/pru_codes/tmp/main.asm                  PAGE   37

    1962        .dwattr $C$DW$T$294, DW_AT_decl_file("/usr/lib/ti/pru-software-support-package/include/am572x_
    1963        .dwattr $C$DW$T$294, DW_AT_decl_line(0xf4)
    1964        .dwattr $C$DW$T$294, DW_AT_decl_column(0x03)
    1965$C$DW$T$295     .dwtag  DW_TAG_volatile_type
    1966        .dwattr $C$DW$T$295, DW_AT_type(*$C$DW$T$294)
    1967
    1968$C$DW$T$37      .dwtag  DW_TAG_structure_type
    1969        .dwattr $C$DW$T$37, DW_AT_byte_size(0x04)
    1970$C$DW$155       .dwtag  DW_TAG_member
    1971        .dwattr $C$DW$155, DW_AT_type(*$C$DW$T$36)
    1972        .dwattr $C$DW$155, DW_AT_name("type")
    1973        .dwattr $C$DW$155, DW_AT_TI_symbol_name("type")
    1974        .dwattr $C$DW$155, DW_AT_data_member_location[DW_OP_plus_uconst 0x0]
    1975        .dwattr $C$DW$155, DW_AT_accessibility(DW_ACCESS_public)
    1976        .dwattr $C$DW$155, DW_AT_decl_file("/usr/lib/ti/pru-software-support-package/include/rsc_types
    1977        .dwattr $C$DW$155, DW_AT_decl_line(0x177)
    1978        .dwattr $C$DW$155, DW_AT_decl_column(0x0d)
    1979$C$DW$156       .dwtag  DW_TAG_member
    1980        .dwattr $C$DW$156, DW_AT_type(*$C$DW$T$36)
    1981        .dwattr $C$DW$156, DW_AT_name("ver")
    1982        .dwattr $C$DW$156, DW_AT_TI_symbol_name("ver")
    1983        .dwattr $C$DW$156, DW_AT_data_member_location[DW_OP_plus_uconst 0x2]
    1984        .dwattr $C$DW$156, DW_AT_accessibility(DW_ACCESS_public)
    1985        .dwattr $C$DW$156, DW_AT_decl_file("/usr/lib/ti/pru-software-support-package/include/rsc_types
    1986        .dwattr $C$DW$156, DW_AT_decl_line(0x178)
    1987        .dwattr $C$DW$156, DW_AT_decl_column(0x0d)
    1988        .dwendtag $C$DW$T$37
    1989
    1990        .dwattr $C$DW$T$37, DW_AT_decl_file("/usr/lib/ti/pru-software-support-package/include/rsc_type
    1991        .dwattr $C$DW$T$37, DW_AT_decl_line(0x176)
    1992        .dwattr $C$DW$T$37, DW_AT_decl_column(0x0a)
    1993
    1994$C$DW$T$38      .dwtag  DW_TAG_structure_type
    1995        .dwattr $C$DW$T$38, DW_AT_byte_size(0x04)
    1996$C$DW$157       .dwtag  DW_TAG_member
    1997        .dwattr $C$DW$157, DW_AT_type(*$C$DW$T$32)
    1998        .dwattr $C$DW$157, DW_AT_name("REVISION")
    1999        .dwattr $C$DW$157, DW_AT_TI_symbol_name("REVISION")
    2000        .dwattr $C$DW$157, DW_AT_bit_offset(0x00), DW_AT_bit_size(0x20)
    2001        .dwattr $C$DW$157, DW_AT_data_member_location[DW_OP_plus_uconst 0x0]
    2002        .dwattr $C$DW$157, DW_AT_accessibility(DW_ACCESS_public)
    2003        .dwattr $C$DW$157, DW_AT_decl_file("/usr/lib/ti/pru-software-support-package/include/am572x_2_
    2004        .dwattr $C$DW$157, DW_AT_decl_line(0x2d)
    2005        .dwattr $C$DW$157, DW_AT_decl_column(0x0d)
    2006        .dwendtag $C$DW$T$38
    2007
    2008        .dwattr $C$DW$T$38, DW_AT_decl_file("/usr/lib/ti/pru-software-support-package/include/am572x_2
    2009        .dwattr $C$DW$T$38, DW_AT_decl_line(0x2c)
    2010        .dwattr $C$DW$T$38, DW_AT_decl_column(0x13)
    2011$C$DW$T$140     .dwtag  DW_TAG_volatile_type
    2012        .dwattr $C$DW$T$140, DW_AT_type(*$C$DW$T$38)
    2013
    2014$C$DW$T$39      .dwtag  DW_TAG_structure_type
    2015        .dwattr $C$DW$T$39, DW_AT_byte_size(0x04)
    2016$C$DW$158       .dwtag  DW_TAG_member
PRU Assembler Unix v2.1.5 Sat Jul  3 21:31:23 2021

Tools Copyright (c) 2012-2017 Texas Instruments Incorporated
/home/debian/BBAI-SHARED-MEM/pru_codes/tmp/main.asm                  PAGE   38

    2017        .dwattr $C$DW$158, DW_AT_type(*$C$DW$T$32)
    2018        .dwattr $C$DW$158, DW_AT_name("rsvd0")
    2019        .dwattr $C$DW$158, DW_AT_TI_symbol_name("rsvd0")
    2020        .dwattr $C$DW$158, DW_AT_bit_offset(0x1f), DW_AT_bit_size(0x01)
    2021        .dwattr $C$DW$158, DW_AT_data_member_location[DW_OP_plus_uconst 0x0]
    2022        .dwattr $C$DW$158, DW_AT_accessibility(DW_ACCESS_public)
    2023        .dwattr $C$DW$158, DW_AT_decl_file("/usr/lib/ti/pru-software-support-package/include/am572x_2_
    2024        .dwattr $C$DW$158, DW_AT_decl_line(0x36)
    2025        .dwattr $C$DW$158, DW_AT_decl_column(0x0d)
    2026$C$DW$159       .dwtag  DW_TAG_member
    2027        .dwattr $C$DW$159, DW_AT_type(*$C$DW$T$32)
    2028        .dwattr $C$DW$159, DW_AT_name("WAKEUP_MODE")
    2029        .dwattr $C$DW$159, DW_AT_TI_symbol_name("WAKEUP_MODE")
    2030        .dwattr $C$DW$159, DW_AT_bit_offset(0x1e), DW_AT_bit_size(0x01)
    2031        .dwattr $C$DW$159, DW_AT_data_member_location[DW_OP_plus_uconst 0x0]
    2032        .dwattr $C$DW$159, DW_AT_accessibility(DW_ACCESS_public)
    2033        .dwattr $C$DW$159, DW_AT_decl_file("/usr/lib/ti/pru-software-support-package/include/am572x_2_
    2034        .dwattr $C$DW$159, DW_AT_decl_line(0x37)
    2035        .dwattr $C$DW$159, DW_AT_decl_column(0x0d)
    2036$C$DW$160       .dwtag  DW_TAG_member
    2037        .dwattr $C$DW$160, DW_AT_type(*$C$DW$T$32)
    2038        .dwattr $C$DW$160, DW_AT_name("NEST_MODE")
    2039        .dwattr $C$DW$160, DW_AT_TI_symbol_name("NEST_MODE")
    2040        .dwattr $C$DW$160, DW_AT_bit_offset(0x1c), DW_AT_bit_size(0x02)
    2041        .dwattr $C$DW$160, DW_AT_data_member_location[DW_OP_plus_uconst 0x0]
    2042        .dwattr $C$DW$160, DW_AT_accessibility(DW_ACCESS_public)
    2043        .dwattr $C$DW$160, DW_AT_decl_file("/usr/lib/ti/pru-software-support-package/include/am572x_2_
    2044        .dwattr $C$DW$160, DW_AT_decl_line(0x38)
    2045        .dwattr $C$DW$160, DW_AT_decl_column(0x0d)
    2046$C$DW$161       .dwtag  DW_TAG_member
    2047        .dwattr $C$DW$161, DW_AT_type(*$C$DW$T$32)
    2048        .dwattr $C$DW$161, DW_AT_name("PRIORITY_HOLD_MODE")
    2049        .dwattr $C$DW$161, DW_AT_TI_symbol_name("PRIORITY_HOLD_MODE")
    2050        .dwattr $C$DW$161, DW_AT_bit_offset(0x1b), DW_AT_bit_size(0x01)
    2051        .dwattr $C$DW$161, DW_AT_data_member_location[DW_OP_plus_uconst 0x0]
    2052        .dwattr $C$DW$161, DW_AT_accessibility(DW_ACCESS_public)
    2053        .dwattr $C$DW$161, DW_AT_decl_file("/usr/lib/ti/pru-software-support-package/include/am572x_2_
    2054        .dwattr $C$DW$161, DW_AT_decl_line(0x39)
    2055        .dwattr $C$DW$161, DW_AT_decl_column(0x0d)
    2056$C$DW$162       .dwtag  DW_TAG_member
    2057        .dwattr $C$DW$162, DW_AT_type(*$C$DW$T$32)
    2058        .dwattr $C$DW$162, DW_AT_name("rsvd5")
    2059        .dwattr $C$DW$162, DW_AT_TI_symbol_name("rsvd5")
    2060        .dwattr $C$DW$162, DW_AT_bit_offset(0x00), DW_AT_bit_size(0x1b)
    2061        .dwattr $C$DW$162, DW_AT_data_member_location[DW_OP_plus_uconst 0x0]
    2062        .dwattr $C$DW$162, DW_AT_accessibility(DW_ACCESS_public)
    2063        .dwattr $C$DW$162, DW_AT_decl_file("/usr/lib/ti/pru-software-support-package/include/am572x_2_
    2064        .dwattr $C$DW$162, DW_AT_decl_line(0x3a)
    2065        .dwattr $C$DW$162, DW_AT_decl_column(0x0d)
    2066        .dwendtag $C$DW$T$39
    2067
    2068        .dwattr $C$DW$T$39, DW_AT_decl_file("/usr/lib/ti/pru-software-support-package/include/am572x_2
    2069        .dwattr $C$DW$T$39, DW_AT_decl_line(0x35)
    2070        .dwattr $C$DW$T$39, DW_AT_decl_column(0x13)
    2071$C$DW$T$142     .dwtag  DW_TAG_volatile_type
PRU Assembler Unix v2.1.5 Sat Jul  3 21:31:23 2021

Tools Copyright (c) 2012-2017 Texas Instruments Incorporated
/home/debian/BBAI-SHARED-MEM/pru_codes/tmp/main.asm                  PAGE   39

    2072        .dwattr $C$DW$T$142, DW_AT_type(*$C$DW$T$39)
    2073
    2074$C$DW$T$40      .dwtag  DW_TAG_structure_type
    2075        .dwattr $C$DW$T$40, DW_AT_byte_size(0x04)
    2076$C$DW$163       .dwtag  DW_TAG_member
    2077        .dwattr $C$DW$163, DW_AT_type(*$C$DW$T$32)
    2078        .dwattr $C$DW$163, DW_AT_name("ENABLE_HINT_ANY")
    2079        .dwattr $C$DW$163, DW_AT_TI_symbol_name("ENABLE_HINT_ANY")
    2080        .dwattr $C$DW$163, DW_AT_bit_offset(0x1f), DW_AT_bit_size(0x01)
    2081        .dwattr $C$DW$163, DW_AT_data_member_location[DW_OP_plus_uconst 0x0]
    2082        .dwattr $C$DW$163, DW_AT_accessibility(DW_ACCESS_public)
    2083        .dwattr $C$DW$163, DW_AT_decl_file("/usr/lib/ti/pru-software-support-package/include/am572x_2_
    2084        .dwattr $C$DW$163, DW_AT_decl_line(0x45)
    2085        .dwattr $C$DW$163, DW_AT_decl_column(0x0d)
    2086$C$DW$164       .dwtag  DW_TAG_member
    2087        .dwattr $C$DW$164, DW_AT_type(*$C$DW$T$32)
    2088        .dwattr $C$DW$164, DW_AT_name("rsvd1")
    2089        .dwattr $C$DW$164, DW_AT_TI_symbol_name("rsvd1")
    2090        .dwattr $C$DW$164, DW_AT_bit_offset(0x00), DW_AT_bit_size(0x1f)
    2091        .dwattr $C$DW$164, DW_AT_data_member_location[DW_OP_plus_uconst 0x0]
    2092        .dwattr $C$DW$164, DW_AT_accessibility(DW_ACCESS_public)
    2093        .dwattr $C$DW$164, DW_AT_decl_file("/usr/lib/ti/pru-software-support-package/include/am572x_2_
    2094        .dwattr $C$DW$164, DW_AT_decl_line(0x46)
    2095        .dwattr $C$DW$164, DW_AT_decl_column(0x0d)
    2096        .dwendtag $C$DW$T$40
    2097
    2098        .dwattr $C$DW$T$40, DW_AT_decl_file("/usr/lib/ti/pru-software-support-package/include/am572x_2
    2099        .dwattr $C$DW$T$40, DW_AT_decl_line(0x44)
    2100        .dwattr $C$DW$T$40, DW_AT_decl_column(0x13)
    2101$C$DW$T$144     .dwtag  DW_TAG_volatile_type
    2102        .dwattr $C$DW$T$144, DW_AT_type(*$C$DW$T$40)
    2103
    2104$C$DW$T$41      .dwtag  DW_TAG_structure_type
    2105        .dwattr $C$DW$T$41, DW_AT_byte_size(0x04)
    2106$C$DW$165       .dwtag  DW_TAG_member
    2107        .dwattr $C$DW$165, DW_AT_type(*$C$DW$T$32)
    2108        .dwattr $C$DW$165, DW_AT_name("GLB_NEST_LEVEL")
    2109        .dwattr $C$DW$165, DW_AT_TI_symbol_name("GLB_NEST_LEVEL")
    2110        .dwattr $C$DW$165, DW_AT_bit_offset(0x17), DW_AT_bit_size(0x09)
    2111        .dwattr $C$DW$165, DW_AT_data_member_location[DW_OP_plus_uconst 0x0]
    2112        .dwattr $C$DW$165, DW_AT_accessibility(DW_ACCESS_public)
    2113        .dwattr $C$DW$165, DW_AT_decl_file("/usr/lib/ti/pru-software-support-package/include/am572x_2_
    2114        .dwattr $C$DW$165, DW_AT_decl_line(0x51)
    2115        .dwattr $C$DW$165, DW_AT_decl_column(0x0d)
    2116$C$DW$166       .dwtag  DW_TAG_member
    2117        .dwattr $C$DW$166, DW_AT_type(*$C$DW$T$32)
    2118        .dwattr $C$DW$166, DW_AT_name("rsvd9")
    2119        .dwattr $C$DW$166, DW_AT_TI_symbol_name("rsvd9")
    2120        .dwattr $C$DW$166, DW_AT_bit_offset(0x01), DW_AT_bit_size(0x16)
    2121        .dwattr $C$DW$166, DW_AT_data_member_location[DW_OP_plus_uconst 0x0]
    2122        .dwattr $C$DW$166, DW_AT_accessibility(DW_ACCESS_public)
    2123        .dwattr $C$DW$166, DW_AT_decl_file("/usr/lib/ti/pru-software-support-package/include/am572x_2_
    2124        .dwattr $C$DW$166, DW_AT_decl_line(0x52)
    2125        .dwattr $C$DW$166, DW_AT_decl_column(0x0d)
    2126$C$DW$167       .dwtag  DW_TAG_member
PRU Assembler Unix v2.1.5 Sat Jul  3 21:31:23 2021

Tools Copyright (c) 2012-2017 Texas Instruments Incorporated
/home/debian/BBAI-SHARED-MEM/pru_codes/tmp/main.asm                  PAGE   40

    2127        .dwattr $C$DW$167, DW_AT_type(*$C$DW$T$32)
    2128        .dwattr $C$DW$167, DW_AT_name("AUTO_OVERRIDE")
    2129        .dwattr $C$DW$167, DW_AT_TI_symbol_name("AUTO_OVERRIDE")
    2130        .dwattr $C$DW$167, DW_AT_bit_offset(0x00), DW_AT_bit_size(0x01)
    2131        .dwattr $C$DW$167, DW_AT_data_member_location[DW_OP_plus_uconst 0x0]
    2132        .dwattr $C$DW$167, DW_AT_accessibility(DW_ACCESS_public)
    2133        .dwattr $C$DW$167, DW_AT_decl_file("/usr/lib/ti/pru-software-support-package/include/am572x_2_
    2134        .dwattr $C$DW$167, DW_AT_decl_line(0x53)
    2135        .dwattr $C$DW$167, DW_AT_decl_column(0x0d)
    2136        .dwendtag $C$DW$T$41
    2137
    2138        .dwattr $C$DW$T$41, DW_AT_decl_file("/usr/lib/ti/pru-software-support-package/include/am572x_2
    2139        .dwattr $C$DW$T$41, DW_AT_decl_line(0x50)
    2140        .dwattr $C$DW$T$41, DW_AT_decl_column(0x13)
    2141$C$DW$T$146     .dwtag  DW_TAG_volatile_type
    2142        .dwattr $C$DW$T$146, DW_AT_type(*$C$DW$T$41)
    2143
    2144$C$DW$T$42      .dwtag  DW_TAG_structure_type
    2145        .dwattr $C$DW$T$42, DW_AT_byte_size(0x04)
    2146$C$DW$168       .dwtag  DW_TAG_member
    2147        .dwattr $C$DW$168, DW_AT_type(*$C$DW$T$32)
    2148        .dwattr $C$DW$168, DW_AT_name("STATUS_SET_INDEX")
    2149        .dwattr $C$DW$168, DW_AT_TI_symbol_name("STATUS_SET_INDEX")
    2150        .dwattr $C$DW$168, DW_AT_bit_offset(0x16), DW_AT_bit_size(0x0a)
    2151        .dwattr $C$DW$168, DW_AT_data_member_location[DW_OP_plus_uconst 0x0]
    2152        .dwattr $C$DW$168, DW_AT_accessibility(DW_ACCESS_public)
    2153        .dwattr $C$DW$168, DW_AT_decl_file("/usr/lib/ti/pru-software-support-package/include/am572x_2_
    2154        .dwattr $C$DW$168, DW_AT_decl_line(0x5c)
    2155        .dwattr $C$DW$168, DW_AT_decl_column(0x0d)
    2156$C$DW$169       .dwtag  DW_TAG_member
    2157        .dwattr $C$DW$169, DW_AT_type(*$C$DW$T$32)
    2158        .dwattr $C$DW$169, DW_AT_name("rsvd10")
    2159        .dwattr $C$DW$169, DW_AT_TI_symbol_name("rsvd10")
    2160        .dwattr $C$DW$169, DW_AT_bit_offset(0x00), DW_AT_bit_size(0x16)
    2161        .dwattr $C$DW$169, DW_AT_data_member_location[DW_OP_plus_uconst 0x0]
    2162        .dwattr $C$DW$169, DW_AT_accessibility(DW_ACCESS_public)
    2163        .dwattr $C$DW$169, DW_AT_decl_file("/usr/lib/ti/pru-software-support-package/include/am572x_2_
    2164        .dwattr $C$DW$169, DW_AT_decl_line(0x5d)
    2165        .dwattr $C$DW$169, DW_AT_decl_column(0x0d)
    2166        .dwendtag $C$DW$T$42
    2167
    2168        .dwattr $C$DW$T$42, DW_AT_decl_file("/usr/lib/ti/pru-software-support-package/include/am572x_2
    2169        .dwattr $C$DW$T$42, DW_AT_decl_line(0x5b)
    2170        .dwattr $C$DW$T$42, DW_AT_decl_column(0x13)
    2171$C$DW$T$148     .dwtag  DW_TAG_volatile_type
    2172        .dwattr $C$DW$T$148, DW_AT_type(*$C$DW$T$42)
    2173
    2174$C$DW$T$43      .dwtag  DW_TAG_structure_type
    2175        .dwattr $C$DW$T$43, DW_AT_byte_size(0x04)
    2176$C$DW$170       .dwtag  DW_TAG_member
    2177        .dwattr $C$DW$170, DW_AT_type(*$C$DW$T$32)
    2178        .dwattr $C$DW$170, DW_AT_name("STATUS_CLR_INDEX")
    2179        .dwattr $C$DW$170, DW_AT_TI_symbol_name("STATUS_CLR_INDEX")
    2180        .dwattr $C$DW$170, DW_AT_bit_offset(0x16), DW_AT_bit_size(0x0a)
    2181        .dwattr $C$DW$170, DW_AT_data_member_location[DW_OP_plus_uconst 0x0]
PRU Assembler Unix v2.1.5 Sat Jul  3 21:31:23 2021

Tools Copyright (c) 2012-2017 Texas Instruments Incorporated
/home/debian/BBAI-SHARED-MEM/pru_codes/tmp/main.asm                  PAGE   41

    2182        .dwattr $C$DW$170, DW_AT_accessibility(DW_ACCESS_public)
    2183        .dwattr $C$DW$170, DW_AT_decl_file("/usr/lib/ti/pru-software-support-package/include/am572x_2_
    2184        .dwattr $C$DW$170, DW_AT_decl_line(0x66)
    2185        .dwattr $C$DW$170, DW_AT_decl_column(0x0d)
    2186$C$DW$171       .dwtag  DW_TAG_member
    2187        .dwattr $C$DW$171, DW_AT_type(*$C$DW$T$32)
    2188        .dwattr $C$DW$171, DW_AT_name("rsvd10")
    2189        .dwattr $C$DW$171, DW_AT_TI_symbol_name("rsvd10")
    2190        .dwattr $C$DW$171, DW_AT_bit_offset(0x00), DW_AT_bit_size(0x16)
    2191        .dwattr $C$DW$171, DW_AT_data_member_location[DW_OP_plus_uconst 0x0]
    2192        .dwattr $C$DW$171, DW_AT_accessibility(DW_ACCESS_public)
    2193        .dwattr $C$DW$171, DW_AT_decl_file("/usr/lib/ti/pru-software-support-package/include/am572x_2_
    2194        .dwattr $C$DW$171, DW_AT_decl_line(0x67)
    2195        .dwattr $C$DW$171, DW_AT_decl_column(0x0d)
    2196        .dwendtag $C$DW$T$43
    2197
    2198        .dwattr $C$DW$T$43, DW_AT_decl_file("/usr/lib/ti/pru-software-support-package/include/am572x_2
    2199        .dwattr $C$DW$T$43, DW_AT_decl_line(0x65)
    2200        .dwattr $C$DW$T$43, DW_AT_decl_column(0x13)
    2201$C$DW$T$150     .dwtag  DW_TAG_volatile_type
    2202        .dwattr $C$DW$T$150, DW_AT_type(*$C$DW$T$43)
    2203
    2204$C$DW$T$44      .dwtag  DW_TAG_structure_type
    2205        .dwattr $C$DW$T$44, DW_AT_byte_size(0x04)
    2206$C$DW$172       .dwtag  DW_TAG_member
    2207        .dwattr $C$DW$172, DW_AT_type(*$C$DW$T$32)
    2208        .dwattr $C$DW$172, DW_AT_name("ENABLE_SET_INDEX")
    2209        .dwattr $C$DW$172, DW_AT_TI_symbol_name("ENABLE_SET_INDEX")
    2210        .dwattr $C$DW$172, DW_AT_bit_offset(0x16), DW_AT_bit_size(0x0a)
    2211        .dwattr $C$DW$172, DW_AT_data_member_location[DW_OP_plus_uconst 0x0]
    2212        .dwattr $C$DW$172, DW_AT_accessibility(DW_ACCESS_public)
    2213        .dwattr $C$DW$172, DW_AT_decl_file("/usr/lib/ti/pru-software-support-package/include/am572x_2_
    2214        .dwattr $C$DW$172, DW_AT_decl_line(0x70)
    2215        .dwattr $C$DW$172, DW_AT_decl_column(0x0d)
    2216$C$DW$173       .dwtag  DW_TAG_member
    2217        .dwattr $C$DW$173, DW_AT_type(*$C$DW$T$32)
    2218        .dwattr $C$DW$173, DW_AT_name("rsvd10")
    2219        .dwattr $C$DW$173, DW_AT_TI_symbol_name("rsvd10")
    2220        .dwattr $C$DW$173, DW_AT_bit_offset(0x00), DW_AT_bit_size(0x16)
    2221        .dwattr $C$DW$173, DW_AT_data_member_location[DW_OP_plus_uconst 0x0]
    2222        .dwattr $C$DW$173, DW_AT_accessibility(DW_ACCESS_public)
    2223        .dwattr $C$DW$173, DW_AT_decl_file("/usr/lib/ti/pru-software-support-package/include/am572x_2_
    2224        .dwattr $C$DW$173, DW_AT_decl_line(0x71)
    2225        .dwattr $C$DW$173, DW_AT_decl_column(0x0d)
    2226        .dwendtag $C$DW$T$44
    2227
    2228        .dwattr $C$DW$T$44, DW_AT_decl_file("/usr/lib/ti/pru-software-support-package/include/am572x_2
    2229        .dwattr $C$DW$T$44, DW_AT_decl_line(0x6f)
    2230        .dwattr $C$DW$T$44, DW_AT_decl_column(0x13)
    2231$C$DW$T$152     .dwtag  DW_TAG_volatile_type
    2232        .dwattr $C$DW$T$152, DW_AT_type(*$C$DW$T$44)
    2233
    2234$C$DW$T$45      .dwtag  DW_TAG_structure_type
    2235        .dwattr $C$DW$T$45, DW_AT_byte_size(0x04)
    2236$C$DW$174       .dwtag  DW_TAG_member
PRU Assembler Unix v2.1.5 Sat Jul  3 21:31:23 2021

Tools Copyright (c) 2012-2017 Texas Instruments Incorporated
/home/debian/BBAI-SHARED-MEM/pru_codes/tmp/main.asm                  PAGE   42

    2237        .dwattr $C$DW$174, DW_AT_type(*$C$DW$T$32)
    2238        .dwattr $C$DW$174, DW_AT_name("ENABLE_CLR_INDEX")
    2239        .dwattr $C$DW$174, DW_AT_TI_symbol_name("ENABLE_CLR_INDEX")
    2240        .dwattr $C$DW$174, DW_AT_bit_offset(0x16), DW_AT_bit_size(0x0a)
    2241        .dwattr $C$DW$174, DW_AT_data_member_location[DW_OP_plus_uconst 0x0]
    2242        .dwattr $C$DW$174, DW_AT_accessibility(DW_ACCESS_public)
    2243        .dwattr $C$DW$174, DW_AT_decl_file("/usr/lib/ti/pru-software-support-package/include/am572x_2_
    2244        .dwattr $C$DW$174, DW_AT_decl_line(0x7a)
    2245        .dwattr $C$DW$174, DW_AT_decl_column(0x0d)
    2246$C$DW$175       .dwtag  DW_TAG_member
    2247        .dwattr $C$DW$175, DW_AT_type(*$C$DW$T$32)
    2248        .dwattr $C$DW$175, DW_AT_name("rsvd10")
    2249        .dwattr $C$DW$175, DW_AT_TI_symbol_name("rsvd10")
    2250        .dwattr $C$DW$175, DW_AT_bit_offset(0x00), DW_AT_bit_size(0x16)
    2251        .dwattr $C$DW$175, DW_AT_data_member_location[DW_OP_plus_uconst 0x0]
    2252        .dwattr $C$DW$175, DW_AT_accessibility(DW_ACCESS_public)
    2253        .dwattr $C$DW$175, DW_AT_decl_file("/usr/lib/ti/pru-software-support-package/include/am572x_2_
    2254        .dwattr $C$DW$175, DW_AT_decl_line(0x7b)
    2255        .dwattr $C$DW$175, DW_AT_decl_column(0x0d)
    2256        .dwendtag $C$DW$T$45
    2257
    2258        .dwattr $C$DW$T$45, DW_AT_decl_file("/usr/lib/ti/pru-software-support-package/include/am572x_2
    2259        .dwattr $C$DW$T$45, DW_AT_decl_line(0x79)
    2260        .dwattr $C$DW$T$45, DW_AT_decl_column(0x13)
    2261$C$DW$T$154     .dwtag  DW_TAG_volatile_type
    2262        .dwattr $C$DW$T$154, DW_AT_type(*$C$DW$T$45)
    2263
    2264$C$DW$T$46      .dwtag  DW_TAG_structure_type
    2265        .dwattr $C$DW$T$46, DW_AT_byte_size(0x04)
    2266$C$DW$176       .dwtag  DW_TAG_member
    2267        .dwattr $C$DW$176, DW_AT_type(*$C$DW$T$32)
    2268        .dwattr $C$DW$176, DW_AT_name("HINT_ENABLE_SET_INDEX")
    2269        .dwattr $C$DW$176, DW_AT_TI_symbol_name("HINT_ENABLE_SET_INDEX")
    2270        .dwattr $C$DW$176, DW_AT_bit_offset(0x16), DW_AT_bit_size(0x0a)
    2271        .dwattr $C$DW$176, DW_AT_data_member_location[DW_OP_plus_uconst 0x0]
    2272        .dwattr $C$DW$176, DW_AT_accessibility(DW_ACCESS_public)
    2273        .dwattr $C$DW$176, DW_AT_decl_file("/usr/lib/ti/pru-software-support-package/include/am572x_2_
    2274        .dwattr $C$DW$176, DW_AT_decl_line(0x86)
    2275        .dwattr $C$DW$176, DW_AT_decl_column(0x0d)
    2276$C$DW$177       .dwtag  DW_TAG_member
    2277        .dwattr $C$DW$177, DW_AT_type(*$C$DW$T$32)
    2278        .dwattr $C$DW$177, DW_AT_name("rsvd10")
    2279        .dwattr $C$DW$177, DW_AT_TI_symbol_name("rsvd10")
    2280        .dwattr $C$DW$177, DW_AT_bit_offset(0x00), DW_AT_bit_size(0x16)
    2281        .dwattr $C$DW$177, DW_AT_data_member_location[DW_OP_plus_uconst 0x0]
    2282        .dwattr $C$DW$177, DW_AT_accessibility(DW_ACCESS_public)
    2283        .dwattr $C$DW$177, DW_AT_decl_file("/usr/lib/ti/pru-software-support-package/include/am572x_2_
    2284        .dwattr $C$DW$177, DW_AT_decl_line(0x87)
    2285        .dwattr $C$DW$177, DW_AT_decl_column(0x0d)
    2286        .dwendtag $C$DW$T$46
    2287
    2288        .dwattr $C$DW$T$46, DW_AT_decl_file("/usr/lib/ti/pru-software-support-package/include/am572x_2
    2289        .dwattr $C$DW$T$46, DW_AT_decl_line(0x85)
    2290        .dwattr $C$DW$T$46, DW_AT_decl_column(0x13)
    2291$C$DW$T$156     .dwtag  DW_TAG_volatile_type
PRU Assembler Unix v2.1.5 Sat Jul  3 21:31:23 2021

Tools Copyright (c) 2012-2017 Texas Instruments Incorporated
/home/debian/BBAI-SHARED-MEM/pru_codes/tmp/main.asm                  PAGE   43

    2292        .dwattr $C$DW$T$156, DW_AT_type(*$C$DW$T$46)
    2293
    2294$C$DW$T$47      .dwtag  DW_TAG_structure_type
    2295        .dwattr $C$DW$T$47, DW_AT_byte_size(0x04)
    2296$C$DW$178       .dwtag  DW_TAG_member
    2297        .dwattr $C$DW$178, DW_AT_type(*$C$DW$T$32)
    2298        .dwattr $C$DW$178, DW_AT_name("HINT_ENABLE_CLR_INDEX")
    2299        .dwattr $C$DW$178, DW_AT_TI_symbol_name("HINT_ENABLE_CLR_INDEX")
    2300        .dwattr $C$DW$178, DW_AT_bit_offset(0x16), DW_AT_bit_size(0x0a)
    2301        .dwattr $C$DW$178, DW_AT_data_member_location[DW_OP_plus_uconst 0x0]
    2302        .dwattr $C$DW$178, DW_AT_accessibility(DW_ACCESS_public)
    2303        .dwattr $C$DW$178, DW_AT_decl_file("/usr/lib/ti/pru-software-support-package/include/am572x_2_
    2304        .dwattr $C$DW$178, DW_AT_decl_line(0x90)
    2305        .dwattr $C$DW$178, DW_AT_decl_column(0x0d)
    2306$C$DW$179       .dwtag  DW_TAG_member
    2307        .dwattr $C$DW$179, DW_AT_type(*$C$DW$T$32)
    2308        .dwattr $C$DW$179, DW_AT_name("rsvd10")
    2309        .dwattr $C$DW$179, DW_AT_TI_symbol_name("rsvd10")
    2310        .dwattr $C$DW$179, DW_AT_bit_offset(0x00), DW_AT_bit_size(0x16)
    2311        .dwattr $C$DW$179, DW_AT_data_member_location[DW_OP_plus_uconst 0x0]
    2312        .dwattr $C$DW$179, DW_AT_accessibility(DW_ACCESS_public)
    2313        .dwattr $C$DW$179, DW_AT_decl_file("/usr/lib/ti/pru-software-support-package/include/am572x_2_
    2314        .dwattr $C$DW$179, DW_AT_decl_line(0x91)
    2315        .dwattr $C$DW$179, DW_AT_decl_column(0x0d)
    2316        .dwendtag $C$DW$T$47
    2317
    2318        .dwattr $C$DW$T$47, DW_AT_decl_file("/usr/lib/ti/pru-software-support-package/include/am572x_2
    2319        .dwattr $C$DW$T$47, DW_AT_decl_line(0x8f)
    2320        .dwattr $C$DW$T$47, DW_AT_decl_column(0x13)
    2321$C$DW$T$158     .dwtag  DW_TAG_volatile_type
    2322        .dwattr $C$DW$T$158, DW_AT_type(*$C$DW$T$47)
    2323
    2324$C$DW$T$48      .dwtag  DW_TAG_structure_type
    2325        .dwattr $C$DW$T$48, DW_AT_byte_size(0x04)
    2326$C$DW$180       .dwtag  DW_TAG_member
    2327        .dwattr $C$DW$180, DW_AT_type(*$C$DW$T$32)
    2328        .dwattr $C$DW$180, DW_AT_name("GLB_PRI_INTR")
    2329        .dwattr $C$DW$180, DW_AT_TI_symbol_name("GLB_PRI_INTR")
    2330        .dwattr $C$DW$180, DW_AT_bit_offset(0x16), DW_AT_bit_size(0x0a)
    2331        .dwattr $C$DW$180, DW_AT_data_member_location[DW_OP_plus_uconst 0x0]
    2332        .dwattr $C$DW$180, DW_AT_accessibility(DW_ACCESS_public)
    2333        .dwattr $C$DW$180, DW_AT_decl_file("/usr/lib/ti/pru-software-support-package/include/am572x_2_
    2334        .dwattr $C$DW$180, DW_AT_decl_line(0x9c)
    2335        .dwattr $C$DW$180, DW_AT_decl_column(0x0d)
    2336$C$DW$181       .dwtag  DW_TAG_member
    2337        .dwattr $C$DW$181, DW_AT_type(*$C$DW$T$32)
    2338        .dwattr $C$DW$181, DW_AT_name("rsvd10")
    2339        .dwattr $C$DW$181, DW_AT_TI_symbol_name("rsvd10")
    2340        .dwattr $C$DW$181, DW_AT_bit_offset(0x01), DW_AT_bit_size(0x15)
    2341        .dwattr $C$DW$181, DW_AT_data_member_location[DW_OP_plus_uconst 0x0]
    2342        .dwattr $C$DW$181, DW_AT_accessibility(DW_ACCESS_public)
    2343        .dwattr $C$DW$181, DW_AT_decl_file("/usr/lib/ti/pru-software-support-package/include/am572x_2_
    2344        .dwattr $C$DW$181, DW_AT_decl_line(0x9d)
    2345        .dwattr $C$DW$181, DW_AT_decl_column(0x0d)
    2346$C$DW$182       .dwtag  DW_TAG_member
PRU Assembler Unix v2.1.5 Sat Jul  3 21:31:23 2021

Tools Copyright (c) 2012-2017 Texas Instruments Incorporated
/home/debian/BBAI-SHARED-MEM/pru_codes/tmp/main.asm                  PAGE   44

    2347        .dwattr $C$DW$182, DW_AT_type(*$C$DW$T$32)
    2348        .dwattr $C$DW$182, DW_AT_name("GLB_NONE")
    2349        .dwattr $C$DW$182, DW_AT_TI_symbol_name("GLB_NONE")
    2350        .dwattr $C$DW$182, DW_AT_bit_offset(0x00), DW_AT_bit_size(0x01)
    2351        .dwattr $C$DW$182, DW_AT_data_member_location[DW_OP_plus_uconst 0x0]
    2352        .dwattr $C$DW$182, DW_AT_accessibility(DW_ACCESS_public)
    2353        .dwattr $C$DW$182, DW_AT_decl_file("/usr/lib/ti/pru-software-support-package/include/am572x_2_
    2354        .dwattr $C$DW$182, DW_AT_decl_line(0x9e)
    2355        .dwattr $C$DW$182, DW_AT_decl_column(0x0d)
    2356        .dwendtag $C$DW$T$48
    2357
    2358        .dwattr $C$DW$T$48, DW_AT_decl_file("/usr/lib/ti/pru-software-support-package/include/am572x_2
    2359        .dwattr $C$DW$T$48, DW_AT_decl_line(0x9b)
    2360        .dwattr $C$DW$T$48, DW_AT_decl_column(0x13)
    2361$C$DW$T$160     .dwtag  DW_TAG_volatile_type
    2362        .dwattr $C$DW$T$160, DW_AT_type(*$C$DW$T$48)
    2363
    2364$C$DW$T$49      .dwtag  DW_TAG_structure_type
    2365        .dwattr $C$DW$T$49, DW_AT_byte_size(0x04)
    2366$C$DW$183       .dwtag  DW_TAG_member
    2367        .dwattr $C$DW$183, DW_AT_type(*$C$DW$T$32)
    2368        .dwattr $C$DW$183, DW_AT_name("RAW_STATUS_31_0")
    2369        .dwattr $C$DW$183, DW_AT_TI_symbol_name("RAW_STATUS_31_0")
    2370        .dwattr $C$DW$183, DW_AT_bit_offset(0x00), DW_AT_bit_size(0x20)
    2371        .dwattr $C$DW$183, DW_AT_data_member_location[DW_OP_plus_uconst 0x0]
    2372        .dwattr $C$DW$183, DW_AT_accessibility(DW_ACCESS_public)
    2373        .dwattr $C$DW$183, DW_AT_decl_file("/usr/lib/ti/pru-software-support-package/include/am572x_2_
    2374        .dwattr $C$DW$183, DW_AT_decl_line(0xa9)
    2375        .dwattr $C$DW$183, DW_AT_decl_column(0x0d)
    2376        .dwendtag $C$DW$T$49
    2377
    2378        .dwattr $C$DW$T$49, DW_AT_decl_file("/usr/lib/ti/pru-software-support-package/include/am572x_2
    2379        .dwattr $C$DW$T$49, DW_AT_decl_line(0xa8)
    2380        .dwattr $C$DW$T$49, DW_AT_decl_column(0x13)
    2381$C$DW$T$162     .dwtag  DW_TAG_volatile_type
    2382        .dwattr $C$DW$T$162, DW_AT_type(*$C$DW$T$49)
    2383
    2384$C$DW$T$50      .dwtag  DW_TAG_structure_type
    2385        .dwattr $C$DW$T$50, DW_AT_byte_size(0x04)
    2386$C$DW$184       .dwtag  DW_TAG_member
    2387        .dwattr $C$DW$184, DW_AT_type(*$C$DW$T$32)
    2388        .dwattr $C$DW$184, DW_AT_name("RAW_STATUS_63_32")
    2389        .dwattr $C$DW$184, DW_AT_TI_symbol_name("RAW_STATUS_63_32")
    2390        .dwattr $C$DW$184, DW_AT_bit_offset(0x00), DW_AT_bit_size(0x20)
    2391        .dwattr $C$DW$184, DW_AT_data_member_location[DW_OP_plus_uconst 0x0]
    2392        .dwattr $C$DW$184, DW_AT_accessibility(DW_ACCESS_public)
    2393        .dwattr $C$DW$184, DW_AT_decl_file("/usr/lib/ti/pru-software-support-package/include/am572x_2_
    2394        .dwattr $C$DW$184, DW_AT_decl_line(0xb2)
    2395        .dwattr $C$DW$184, DW_AT_decl_column(0x0d)
    2396        .dwendtag $C$DW$T$50
    2397
    2398        .dwattr $C$DW$T$50, DW_AT_decl_file("/usr/lib/ti/pru-software-support-package/include/am572x_2
    2399        .dwattr $C$DW$T$50, DW_AT_decl_line(0xb1)
    2400        .dwattr $C$DW$T$50, DW_AT_decl_column(0x13)
    2401$C$DW$T$164     .dwtag  DW_TAG_volatile_type
PRU Assembler Unix v2.1.5 Sat Jul  3 21:31:23 2021

Tools Copyright (c) 2012-2017 Texas Instruments Incorporated
/home/debian/BBAI-SHARED-MEM/pru_codes/tmp/main.asm                  PAGE   45

    2402        .dwattr $C$DW$T$164, DW_AT_type(*$C$DW$T$50)
    2403
    2404$C$DW$T$51      .dwtag  DW_TAG_structure_type
    2405        .dwattr $C$DW$T$51, DW_AT_byte_size(0x04)
    2406$C$DW$185       .dwtag  DW_TAG_member
    2407        .dwattr $C$DW$185, DW_AT_type(*$C$DW$T$32)
    2408        .dwattr $C$DW$185, DW_AT_name("ENA_STATUS_31_0")
    2409        .dwattr $C$DW$185, DW_AT_TI_symbol_name("ENA_STATUS_31_0")
    2410        .dwattr $C$DW$185, DW_AT_bit_offset(0x00), DW_AT_bit_size(0x20)
    2411        .dwattr $C$DW$185, DW_AT_data_member_location[DW_OP_plus_uconst 0x0]
    2412        .dwattr $C$DW$185, DW_AT_accessibility(DW_ACCESS_public)
    2413        .dwattr $C$DW$185, DW_AT_decl_file("/usr/lib/ti/pru-software-support-package/include/am572x_2_
    2414        .dwattr $C$DW$185, DW_AT_decl_line(0xbd)
    2415        .dwattr $C$DW$185, DW_AT_decl_column(0x0d)
    2416        .dwendtag $C$DW$T$51
    2417
    2418        .dwattr $C$DW$T$51, DW_AT_decl_file("/usr/lib/ti/pru-software-support-package/include/am572x_2
    2419        .dwattr $C$DW$T$51, DW_AT_decl_line(0xbc)
    2420        .dwattr $C$DW$T$51, DW_AT_decl_column(0x13)
    2421$C$DW$T$166     .dwtag  DW_TAG_volatile_type
    2422        .dwattr $C$DW$T$166, DW_AT_type(*$C$DW$T$51)
    2423
    2424$C$DW$T$52      .dwtag  DW_TAG_structure_type
    2425        .dwattr $C$DW$T$52, DW_AT_byte_size(0x04)
    2426$C$DW$186       .dwtag  DW_TAG_member
    2427        .dwattr $C$DW$186, DW_AT_type(*$C$DW$T$32)
    2428        .dwattr $C$DW$186, DW_AT_name("ENA_STATUS_63_32")
    2429        .dwattr $C$DW$186, DW_AT_TI_symbol_name("ENA_STATUS_63_32")
    2430        .dwattr $C$DW$186, DW_AT_bit_offset(0x00), DW_AT_bit_size(0x20)
    2431        .dwattr $C$DW$186, DW_AT_data_member_location[DW_OP_plus_uconst 0x0]
    2432        .dwattr $C$DW$186, DW_AT_accessibility(DW_ACCESS_public)
    2433        .dwattr $C$DW$186, DW_AT_decl_file("/usr/lib/ti/pru-software-support-package/include/am572x_2_
    2434        .dwattr $C$DW$186, DW_AT_decl_line(0xc6)
    2435        .dwattr $C$DW$186, DW_AT_decl_column(0x0d)
    2436        .dwendtag $C$DW$T$52
    2437
    2438        .dwattr $C$DW$T$52, DW_AT_decl_file("/usr/lib/ti/pru-software-support-package/include/am572x_2
    2439        .dwattr $C$DW$T$52, DW_AT_decl_line(0xc5)
    2440        .dwattr $C$DW$T$52, DW_AT_decl_column(0x13)
    2441$C$DW$T$168     .dwtag  DW_TAG_volatile_type
    2442        .dwattr $C$DW$T$168, DW_AT_type(*$C$DW$T$52)
    2443
    2444$C$DW$T$53      .dwtag  DW_TAG_structure_type
    2445        .dwattr $C$DW$T$53, DW_AT_byte_size(0x04)
    2446$C$DW$187       .dwtag  DW_TAG_member
    2447        .dwattr $C$DW$187, DW_AT_type(*$C$DW$T$32)
    2448        .dwattr $C$DW$187, DW_AT_name("ENABLE_SET_31_0")
    2449        .dwattr $C$DW$187, DW_AT_TI_symbol_name("ENABLE_SET_31_0")
    2450        .dwattr $C$DW$187, DW_AT_bit_offset(0x00), DW_AT_bit_size(0x20)
    2451        .dwattr $C$DW$187, DW_AT_data_member_location[DW_OP_plus_uconst 0x0]
    2452        .dwattr $C$DW$187, DW_AT_accessibility(DW_ACCESS_public)
    2453        .dwattr $C$DW$187, DW_AT_decl_file("/usr/lib/ti/pru-software-support-package/include/am572x_2_
    2454        .dwattr $C$DW$187, DW_AT_decl_line(0xd1)
    2455        .dwattr $C$DW$187, DW_AT_decl_column(0x0d)
    2456        .dwendtag $C$DW$T$53
PRU Assembler Unix v2.1.5 Sat Jul  3 21:31:23 2021

Tools Copyright (c) 2012-2017 Texas Instruments Incorporated
/home/debian/BBAI-SHARED-MEM/pru_codes/tmp/main.asm                  PAGE   46

    2457
    2458        .dwattr $C$DW$T$53, DW_AT_decl_file("/usr/lib/ti/pru-software-support-package/include/am572x_2
    2459        .dwattr $C$DW$T$53, DW_AT_decl_line(0xd0)
    2460        .dwattr $C$DW$T$53, DW_AT_decl_column(0x13)
    2461$C$DW$T$170     .dwtag  DW_TAG_volatile_type
    2462        .dwattr $C$DW$T$170, DW_AT_type(*$C$DW$T$53)
    2463
    2464$C$DW$T$54      .dwtag  DW_TAG_structure_type
    2465        .dwattr $C$DW$T$54, DW_AT_byte_size(0x04)
    2466$C$DW$188       .dwtag  DW_TAG_member
    2467        .dwattr $C$DW$188, DW_AT_type(*$C$DW$T$32)
    2468        .dwattr $C$DW$188, DW_AT_name("ENABLE_SET_63_32")
    2469        .dwattr $C$DW$188, DW_AT_TI_symbol_name("ENABLE_SET_63_32")
    2470        .dwattr $C$DW$188, DW_AT_bit_offset(0x00), DW_AT_bit_size(0x20)
    2471        .dwattr $C$DW$188, DW_AT_data_member_location[DW_OP_plus_uconst 0x0]
    2472        .dwattr $C$DW$188, DW_AT_accessibility(DW_ACCESS_public)
    2473        .dwattr $C$DW$188, DW_AT_decl_file("/usr/lib/ti/pru-software-support-package/include/am572x_2_
    2474        .dwattr $C$DW$188, DW_AT_decl_line(0xda)
    2475        .dwattr $C$DW$188, DW_AT_decl_column(0x0d)
    2476        .dwendtag $C$DW$T$54
    2477
    2478        .dwattr $C$DW$T$54, DW_AT_decl_file("/usr/lib/ti/pru-software-support-package/include/am572x_2
    2479        .dwattr $C$DW$T$54, DW_AT_decl_line(0xd9)
    2480        .dwattr $C$DW$T$54, DW_AT_decl_column(0x13)
    2481$C$DW$T$172     .dwtag  DW_TAG_volatile_type
    2482        .dwattr $C$DW$T$172, DW_AT_type(*$C$DW$T$54)
    2483
    2484$C$DW$T$55      .dwtag  DW_TAG_structure_type
    2485        .dwattr $C$DW$T$55, DW_AT_byte_size(0x04)
    2486$C$DW$189       .dwtag  DW_TAG_member
    2487        .dwattr $C$DW$189, DW_AT_type(*$C$DW$T$32)
    2488        .dwattr $C$DW$189, DW_AT_name("ENABLE_CLR_31_0")
    2489        .dwattr $C$DW$189, DW_AT_TI_symbol_name("ENABLE_CLR_31_0")
    2490        .dwattr $C$DW$189, DW_AT_bit_offset(0x00), DW_AT_bit_size(0x20)
    2491        .dwattr $C$DW$189, DW_AT_data_member_location[DW_OP_plus_uconst 0x0]
    2492        .dwattr $C$DW$189, DW_AT_accessibility(DW_ACCESS_public)
    2493        .dwattr $C$DW$189, DW_AT_decl_file("/usr/lib/ti/pru-software-support-package/include/am572x_2_
    2494        .dwattr $C$DW$189, DW_AT_decl_line(0xe5)
    2495        .dwattr $C$DW$189, DW_AT_decl_column(0x0d)
    2496        .dwendtag $C$DW$T$55
    2497
    2498        .dwattr $C$DW$T$55, DW_AT_decl_file("/usr/lib/ti/pru-software-support-package/include/am572x_2
    2499        .dwattr $C$DW$T$55, DW_AT_decl_line(0xe4)
    2500        .dwattr $C$DW$T$55, DW_AT_decl_column(0x13)
    2501$C$DW$T$174     .dwtag  DW_TAG_volatile_type
    2502        .dwattr $C$DW$T$174, DW_AT_type(*$C$DW$T$55)
    2503
    2504$C$DW$T$56      .dwtag  DW_TAG_structure_type
    2505        .dwattr $C$DW$T$56, DW_AT_byte_size(0x04)
    2506$C$DW$190       .dwtag  DW_TAG_member
    2507        .dwattr $C$DW$190, DW_AT_type(*$C$DW$T$32)
    2508        .dwattr $C$DW$190, DW_AT_name("ENABLE_CLR_63_32")
    2509        .dwattr $C$DW$190, DW_AT_TI_symbol_name("ENABLE_CLR_63_32")
    2510        .dwattr $C$DW$190, DW_AT_bit_offset(0x00), DW_AT_bit_size(0x20)
    2511        .dwattr $C$DW$190, DW_AT_data_member_location[DW_OP_plus_uconst 0x0]
PRU Assembler Unix v2.1.5 Sat Jul  3 21:31:23 2021

Tools Copyright (c) 2012-2017 Texas Instruments Incorporated
/home/debian/BBAI-SHARED-MEM/pru_codes/tmp/main.asm                  PAGE   47

    2512        .dwattr $C$DW$190, DW_AT_accessibility(DW_ACCESS_public)
    2513        .dwattr $C$DW$190, DW_AT_decl_file("/usr/lib/ti/pru-software-support-package/include/am572x_2_
    2514        .dwattr $C$DW$190, DW_AT_decl_line(0xee)
    2515        .dwattr $C$DW$190, DW_AT_decl_column(0x0d)
    2516        .dwendtag $C$DW$T$56
    2517
    2518        .dwattr $C$DW$T$56, DW_AT_decl_file("/usr/lib/ti/pru-software-support-package/include/am572x_2
    2519        .dwattr $C$DW$T$56, DW_AT_decl_line(0xed)
    2520        .dwattr $C$DW$T$56, DW_AT_decl_column(0x13)
    2521$C$DW$T$176     .dwtag  DW_TAG_volatile_type
    2522        .dwattr $C$DW$T$176, DW_AT_type(*$C$DW$T$56)
    2523
    2524$C$DW$T$57      .dwtag  DW_TAG_structure_type
    2525        .dwattr $C$DW$T$57, DW_AT_byte_size(0x04)
    2526$C$DW$191       .dwtag  DW_TAG_member
    2527        .dwattr $C$DW$191, DW_AT_type(*$C$DW$T$32)
    2528        .dwattr $C$DW$191, DW_AT_name("CH_MAP_0")
    2529        .dwattr $C$DW$191, DW_AT_TI_symbol_name("CH_MAP_0")
    2530        .dwattr $C$DW$191, DW_AT_bit_offset(0x1c), DW_AT_bit_size(0x04)
    2531        .dwattr $C$DW$191, DW_AT_data_member_location[DW_OP_plus_uconst 0x0]
    2532        .dwattr $C$DW$191, DW_AT_accessibility(DW_ACCESS_public)
    2533        .dwattr $C$DW$191, DW_AT_decl_file("/usr/lib/ti/pru-software-support-package/include/am572x_2_
    2534        .dwattr $C$DW$191, DW_AT_decl_line(0xf9)
    2535        .dwattr $C$DW$191, DW_AT_decl_column(0x0d)
    2536$C$DW$192       .dwtag  DW_TAG_member
    2537        .dwattr $C$DW$192, DW_AT_type(*$C$DW$T$32)
    2538        .dwattr $C$DW$192, DW_AT_name("rsvd4")
    2539        .dwattr $C$DW$192, DW_AT_TI_symbol_name("rsvd4")
    2540        .dwattr $C$DW$192, DW_AT_bit_offset(0x18), DW_AT_bit_size(0x04)
    2541        .dwattr $C$DW$192, DW_AT_data_member_location[DW_OP_plus_uconst 0x0]
    2542        .dwattr $C$DW$192, DW_AT_accessibility(DW_ACCESS_public)
    2543        .dwattr $C$DW$192, DW_AT_decl_file("/usr/lib/ti/pru-software-support-package/include/am572x_2_
    2544        .dwattr $C$DW$192, DW_AT_decl_line(0xfa)
    2545        .dwattr $C$DW$192, DW_AT_decl_column(0x0d)
    2546$C$DW$193       .dwtag  DW_TAG_member
    2547        .dwattr $C$DW$193, DW_AT_type(*$C$DW$T$32)
    2548        .dwattr $C$DW$193, DW_AT_name("CH_MAP_1")
    2549        .dwattr $C$DW$193, DW_AT_TI_symbol_name("CH_MAP_1")
    2550        .dwattr $C$DW$193, DW_AT_bit_offset(0x14), DW_AT_bit_size(0x04)
    2551        .dwattr $C$DW$193, DW_AT_data_member_location[DW_OP_plus_uconst 0x0]
    2552        .dwattr $C$DW$193, DW_AT_accessibility(DW_ACCESS_public)
    2553        .dwattr $C$DW$193, DW_AT_decl_file("/usr/lib/ti/pru-software-support-package/include/am572x_2_
    2554        .dwattr $C$DW$193, DW_AT_decl_line(0xfb)
    2555        .dwattr $C$DW$193, DW_AT_decl_column(0x0d)
    2556$C$DW$194       .dwtag  DW_TAG_member
    2557        .dwattr $C$DW$194, DW_AT_type(*$C$DW$T$32)
    2558        .dwattr $C$DW$194, DW_AT_name("rsvd12")
    2559        .dwattr $C$DW$194, DW_AT_TI_symbol_name("rsvd12")
    2560        .dwattr $C$DW$194, DW_AT_bit_offset(0x10), DW_AT_bit_size(0x04)
    2561        .dwattr $C$DW$194, DW_AT_data_member_location[DW_OP_plus_uconst 0x0]
    2562        .dwattr $C$DW$194, DW_AT_accessibility(DW_ACCESS_public)
    2563        .dwattr $C$DW$194, DW_AT_decl_file("/usr/lib/ti/pru-software-support-package/include/am572x_2_
    2564        .dwattr $C$DW$194, DW_AT_decl_line(0xfc)
    2565        .dwattr $C$DW$194, DW_AT_decl_column(0x0d)
    2566$C$DW$195       .dwtag  DW_TAG_member
PRU Assembler Unix v2.1.5 Sat Jul  3 21:31:23 2021

Tools Copyright (c) 2012-2017 Texas Instruments Incorporated
/home/debian/BBAI-SHARED-MEM/pru_codes/tmp/main.asm                  PAGE   48

    2567        .dwattr $C$DW$195, DW_AT_type(*$C$DW$T$32)
    2568        .dwattr $C$DW$195, DW_AT_name("CH_MAP_2")
    2569        .dwattr $C$DW$195, DW_AT_TI_symbol_name("CH_MAP_2")
    2570        .dwattr $C$DW$195, DW_AT_bit_offset(0x0c), DW_AT_bit_size(0x04)
    2571        .dwattr $C$DW$195, DW_AT_data_member_location[DW_OP_plus_uconst 0x0]
    2572        .dwattr $C$DW$195, DW_AT_accessibility(DW_ACCESS_public)
    2573        .dwattr $C$DW$195, DW_AT_decl_file("/usr/lib/ti/pru-software-support-package/include/am572x_2_
    2574        .dwattr $C$DW$195, DW_AT_decl_line(0xfd)
    2575        .dwattr $C$DW$195, DW_AT_decl_column(0x0d)
    2576$C$DW$196       .dwtag  DW_TAG_member
    2577        .dwattr $C$DW$196, DW_AT_type(*$C$DW$T$32)
    2578        .dwattr $C$DW$196, DW_AT_name("rsvd20")
    2579        .dwattr $C$DW$196, DW_AT_TI_symbol_name("rsvd20")
    2580        .dwattr $C$DW$196, DW_AT_bit_offset(0x08), DW_AT_bit_size(0x04)
    2581        .dwattr $C$DW$196, DW_AT_data_member_location[DW_OP_plus_uconst 0x0]
    2582        .dwattr $C$DW$196, DW_AT_accessibility(DW_ACCESS_public)
    2583        .dwattr $C$DW$196, DW_AT_decl_file("/usr/lib/ti/pru-software-support-package/include/am572x_2_
    2584        .dwattr $C$DW$196, DW_AT_decl_line(0xfe)
    2585        .dwattr $C$DW$196, DW_AT_decl_column(0x0d)
    2586$C$DW$197       .dwtag  DW_TAG_member
    2587        .dwattr $C$DW$197, DW_AT_type(*$C$DW$T$32)
    2588        .dwattr $C$DW$197, DW_AT_name("CH_MAP_3")
    2589        .dwattr $C$DW$197, DW_AT_TI_symbol_name("CH_MAP_3")
    2590        .dwattr $C$DW$197, DW_AT_bit_offset(0x04), DW_AT_bit_size(0x04)
    2591        .dwattr $C$DW$197, DW_AT_data_member_location[DW_OP_plus_uconst 0x0]
    2592        .dwattr $C$DW$197, DW_AT_accessibility(DW_ACCESS_public)
    2593        .dwattr $C$DW$197, DW_AT_decl_file("/usr/lib/ti/pru-software-support-package/include/am572x_2_
    2594        .dwattr $C$DW$197, DW_AT_decl_line(0xff)
    2595        .dwattr $C$DW$197, DW_AT_decl_column(0x0d)
    2596$C$DW$198       .dwtag  DW_TAG_member
    2597        .dwattr $C$DW$198, DW_AT_type(*$C$DW$T$32)
    2598        .dwattr $C$DW$198, DW_AT_name("rsvd28")
    2599        .dwattr $C$DW$198, DW_AT_TI_symbol_name("rsvd28")
    2600        .dwattr $C$DW$198, DW_AT_bit_offset(0x00), DW_AT_bit_size(0x04)
    2601        .dwattr $C$DW$198, DW_AT_data_member_location[DW_OP_plus_uconst 0x0]
    2602        .dwattr $C$DW$198, DW_AT_accessibility(DW_ACCESS_public)
    2603        .dwattr $C$DW$198, DW_AT_decl_file("/usr/lib/ti/pru-software-support-package/include/am572x_2_
    2604        .dwattr $C$DW$198, DW_AT_decl_line(0x100)
    2605        .dwattr $C$DW$198, DW_AT_decl_column(0x0d)
    2606        .dwendtag $C$DW$T$57
    2607
    2608        .dwattr $C$DW$T$57, DW_AT_decl_file("/usr/lib/ti/pru-software-support-package/include/am572x_2
    2609        .dwattr $C$DW$T$57, DW_AT_decl_line(0xf8)
    2610        .dwattr $C$DW$T$57, DW_AT_decl_column(0x13)
    2611$C$DW$T$178     .dwtag  DW_TAG_volatile_type
    2612        .dwattr $C$DW$T$178, DW_AT_type(*$C$DW$T$57)
    2613
    2614$C$DW$T$58      .dwtag  DW_TAG_structure_type
    2615        .dwattr $C$DW$T$58, DW_AT_byte_size(0x04)
    2616$C$DW$199       .dwtag  DW_TAG_member
    2617        .dwattr $C$DW$199, DW_AT_type(*$C$DW$T$32)
    2618        .dwattr $C$DW$199, DW_AT_name("CH_MAP_4")
    2619        .dwattr $C$DW$199, DW_AT_TI_symbol_name("CH_MAP_4")
    2620        .dwattr $C$DW$199, DW_AT_bit_offset(0x1c), DW_AT_bit_size(0x04)
    2621        .dwattr $C$DW$199, DW_AT_data_member_location[DW_OP_plus_uconst 0x0]
PRU Assembler Unix v2.1.5 Sat Jul  3 21:31:23 2021

Tools Copyright (c) 2012-2017 Texas Instruments Incorporated
/home/debian/BBAI-SHARED-MEM/pru_codes/tmp/main.asm                  PAGE   49

    2622        .dwattr $C$DW$199, DW_AT_accessibility(DW_ACCESS_public)
    2623        .dwattr $C$DW$199, DW_AT_decl_file("/usr/lib/ti/pru-software-support-package/include/am572x_2_
    2624        .dwattr $C$DW$199, DW_AT_decl_line(0x10a)
    2625        .dwattr $C$DW$199, DW_AT_decl_column(0x0d)
    2626$C$DW$200       .dwtag  DW_TAG_member
    2627        .dwattr $C$DW$200, DW_AT_type(*$C$DW$T$32)
    2628        .dwattr $C$DW$200, DW_AT_name("rsvd4")
    2629        .dwattr $C$DW$200, DW_AT_TI_symbol_name("rsvd4")
    2630        .dwattr $C$DW$200, DW_AT_bit_offset(0x18), DW_AT_bit_size(0x04)
    2631        .dwattr $C$DW$200, DW_AT_data_member_location[DW_OP_plus_uconst 0x0]
    2632        .dwattr $C$DW$200, DW_AT_accessibility(DW_ACCESS_public)
    2633        .dwattr $C$DW$200, DW_AT_decl_file("/usr/lib/ti/pru-software-support-package/include/am572x_2_
    2634        .dwattr $C$DW$200, DW_AT_decl_line(0x10b)
    2635        .dwattr $C$DW$200, DW_AT_decl_column(0x0d)
    2636$C$DW$201       .dwtag  DW_TAG_member
    2637        .dwattr $C$DW$201, DW_AT_type(*$C$DW$T$32)
    2638        .dwattr $C$DW$201, DW_AT_name("CH_MAP_5")
    2639        .dwattr $C$DW$201, DW_AT_TI_symbol_name("CH_MAP_5")
    2640        .dwattr $C$DW$201, DW_AT_bit_offset(0x14), DW_AT_bit_size(0x04)
    2641        .dwattr $C$DW$201, DW_AT_data_member_location[DW_OP_plus_uconst 0x0]
    2642        .dwattr $C$DW$201, DW_AT_accessibility(DW_ACCESS_public)
    2643        .dwattr $C$DW$201, DW_AT_decl_file("/usr/lib/ti/pru-software-support-package/include/am572x_2_
    2644        .dwattr $C$DW$201, DW_AT_decl_line(0x10c)
    2645        .dwattr $C$DW$201, DW_AT_decl_column(0x0d)
    2646$C$DW$202       .dwtag  DW_TAG_member
    2647        .dwattr $C$DW$202, DW_AT_type(*$C$DW$T$32)
    2648        .dwattr $C$DW$202, DW_AT_name("rsvd12")
    2649        .dwattr $C$DW$202, DW_AT_TI_symbol_name("rsvd12")
    2650        .dwattr $C$DW$202, DW_AT_bit_offset(0x10), DW_AT_bit_size(0x04)
    2651        .dwattr $C$DW$202, DW_AT_data_member_location[DW_OP_plus_uconst 0x0]
    2652        .dwattr $C$DW$202, DW_AT_accessibility(DW_ACCESS_public)
    2653        .dwattr $C$DW$202, DW_AT_decl_file("/usr/lib/ti/pru-software-support-package/include/am572x_2_
    2654        .dwattr $C$DW$202, DW_AT_decl_line(0x10d)
    2655        .dwattr $C$DW$202, DW_AT_decl_column(0x0d)
    2656$C$DW$203       .dwtag  DW_TAG_member
    2657        .dwattr $C$DW$203, DW_AT_type(*$C$DW$T$32)
    2658        .dwattr $C$DW$203, DW_AT_name("CH_MAP_6")
    2659        .dwattr $C$DW$203, DW_AT_TI_symbol_name("CH_MAP_6")
    2660        .dwattr $C$DW$203, DW_AT_bit_offset(0x0c), DW_AT_bit_size(0x04)
    2661        .dwattr $C$DW$203, DW_AT_data_member_location[DW_OP_plus_uconst 0x0]
    2662        .dwattr $C$DW$203, DW_AT_accessibility(DW_ACCESS_public)
    2663        .dwattr $C$DW$203, DW_AT_decl_file("/usr/lib/ti/pru-software-support-package/include/am572x_2_
    2664        .dwattr $C$DW$203, DW_AT_decl_line(0x10e)
    2665        .dwattr $C$DW$203, DW_AT_decl_column(0x0d)
    2666$C$DW$204       .dwtag  DW_TAG_member
    2667        .dwattr $C$DW$204, DW_AT_type(*$C$DW$T$32)
    2668        .dwattr $C$DW$204, DW_AT_name("rsvd20")
    2669        .dwattr $C$DW$204, DW_AT_TI_symbol_name("rsvd20")
    2670        .dwattr $C$DW$204, DW_AT_bit_offset(0x08), DW_AT_bit_size(0x04)
    2671        .dwattr $C$DW$204, DW_AT_data_member_location[DW_OP_plus_uconst 0x0]
    2672        .dwattr $C$DW$204, DW_AT_accessibility(DW_ACCESS_public)
    2673        .dwattr $C$DW$204, DW_AT_decl_file("/usr/lib/ti/pru-software-support-package/include/am572x_2_
    2674        .dwattr $C$DW$204, DW_AT_decl_line(0x10f)
    2675        .dwattr $C$DW$204, DW_AT_decl_column(0x0d)
    2676$C$DW$205       .dwtag  DW_TAG_member
PRU Assembler Unix v2.1.5 Sat Jul  3 21:31:23 2021

Tools Copyright (c) 2012-2017 Texas Instruments Incorporated
/home/debian/BBAI-SHARED-MEM/pru_codes/tmp/main.asm                  PAGE   50

    2677        .dwattr $C$DW$205, DW_AT_type(*$C$DW$T$32)
    2678        .dwattr $C$DW$205, DW_AT_name("CH_MAP_7")
    2679        .dwattr $C$DW$205, DW_AT_TI_symbol_name("CH_MAP_7")
    2680        .dwattr $C$DW$205, DW_AT_bit_offset(0x04), DW_AT_bit_size(0x04)
    2681        .dwattr $C$DW$205, DW_AT_data_member_location[DW_OP_plus_uconst 0x0]
    2682        .dwattr $C$DW$205, DW_AT_accessibility(DW_ACCESS_public)
    2683        .dwattr $C$DW$205, DW_AT_decl_file("/usr/lib/ti/pru-software-support-package/include/am572x_2_
    2684        .dwattr $C$DW$205, DW_AT_decl_line(0x110)
    2685        .dwattr $C$DW$205, DW_AT_decl_column(0x0d)
    2686$C$DW$206       .dwtag  DW_TAG_member
    2687        .dwattr $C$DW$206, DW_AT_type(*$C$DW$T$32)
    2688        .dwattr $C$DW$206, DW_AT_name("rsvd28")
    2689        .dwattr $C$DW$206, DW_AT_TI_symbol_name("rsvd28")
    2690        .dwattr $C$DW$206, DW_AT_bit_offset(0x00), DW_AT_bit_size(0x04)
    2691        .dwattr $C$DW$206, DW_AT_data_member_location[DW_OP_plus_uconst 0x0]
    2692        .dwattr $C$DW$206, DW_AT_accessibility(DW_ACCESS_public)
    2693        .dwattr $C$DW$206, DW_AT_decl_file("/usr/lib/ti/pru-software-support-package/include/am572x_2_
    2694        .dwattr $C$DW$206, DW_AT_decl_line(0x111)
    2695        .dwattr $C$DW$206, DW_AT_decl_column(0x0d)
    2696        .dwendtag $C$DW$T$58
    2697
    2698        .dwattr $C$DW$T$58, DW_AT_decl_file("/usr/lib/ti/pru-software-support-package/include/am572x_2
    2699        .dwattr $C$DW$T$58, DW_AT_decl_line(0x109)
    2700        .dwattr $C$DW$T$58, DW_AT_decl_column(0x13)
    2701$C$DW$T$180     .dwtag  DW_TAG_volatile_type
    2702        .dwattr $C$DW$T$180, DW_AT_type(*$C$DW$T$58)
    2703
    2704$C$DW$T$59      .dwtag  DW_TAG_structure_type
    2705        .dwattr $C$DW$T$59, DW_AT_byte_size(0x04)
    2706$C$DW$207       .dwtag  DW_TAG_member
    2707        .dwattr $C$DW$207, DW_AT_type(*$C$DW$T$32)
    2708        .dwattr $C$DW$207, DW_AT_name("CH_MAP_8")
    2709        .dwattr $C$DW$207, DW_AT_TI_symbol_name("CH_MAP_8")
    2710        .dwattr $C$DW$207, DW_AT_bit_offset(0x1c), DW_AT_bit_size(0x04)
    2711        .dwattr $C$DW$207, DW_AT_data_member_location[DW_OP_plus_uconst 0x0]
    2712        .dwattr $C$DW$207, DW_AT_accessibility(DW_ACCESS_public)
    2713        .dwattr $C$DW$207, DW_AT_decl_file("/usr/lib/ti/pru-software-support-package/include/am572x_2_
    2714        .dwattr $C$DW$207, DW_AT_decl_line(0x11b)
    2715        .dwattr $C$DW$207, DW_AT_decl_column(0x0d)
    2716$C$DW$208       .dwtag  DW_TAG_member
    2717        .dwattr $C$DW$208, DW_AT_type(*$C$DW$T$32)
    2718        .dwattr $C$DW$208, DW_AT_name("rsvd4")
    2719        .dwattr $C$DW$208, DW_AT_TI_symbol_name("rsvd4")
    2720        .dwattr $C$DW$208, DW_AT_bit_offset(0x18), DW_AT_bit_size(0x04)
    2721        .dwattr $C$DW$208, DW_AT_data_member_location[DW_OP_plus_uconst 0x0]
    2722        .dwattr $C$DW$208, DW_AT_accessibility(DW_ACCESS_public)
    2723        .dwattr $C$DW$208, DW_AT_decl_file("/usr/lib/ti/pru-software-support-package/include/am572x_2_
    2724        .dwattr $C$DW$208, DW_AT_decl_line(0x11c)
    2725        .dwattr $C$DW$208, DW_AT_decl_column(0x0d)
    2726$C$DW$209       .dwtag  DW_TAG_member
    2727        .dwattr $C$DW$209, DW_AT_type(*$C$DW$T$32)
    2728        .dwattr $C$DW$209, DW_AT_name("CH_MAP_9")
    2729        .dwattr $C$DW$209, DW_AT_TI_symbol_name("CH_MAP_9")
    2730        .dwattr $C$DW$209, DW_AT_bit_offset(0x14), DW_AT_bit_size(0x04)
    2731        .dwattr $C$DW$209, DW_AT_data_member_location[DW_OP_plus_uconst 0x0]
PRU Assembler Unix v2.1.5 Sat Jul  3 21:31:23 2021

Tools Copyright (c) 2012-2017 Texas Instruments Incorporated
/home/debian/BBAI-SHARED-MEM/pru_codes/tmp/main.asm                  PAGE   51

    2732        .dwattr $C$DW$209, DW_AT_accessibility(DW_ACCESS_public)
    2733        .dwattr $C$DW$209, DW_AT_decl_file("/usr/lib/ti/pru-software-support-package/include/am572x_2_
    2734        .dwattr $C$DW$209, DW_AT_decl_line(0x11d)
    2735        .dwattr $C$DW$209, DW_AT_decl_column(0x0d)
    2736$C$DW$210       .dwtag  DW_TAG_member
    2737        .dwattr $C$DW$210, DW_AT_type(*$C$DW$T$32)
    2738        .dwattr $C$DW$210, DW_AT_name("rsvd12")
    2739        .dwattr $C$DW$210, DW_AT_TI_symbol_name("rsvd12")
    2740        .dwattr $C$DW$210, DW_AT_bit_offset(0x10), DW_AT_bit_size(0x04)
    2741        .dwattr $C$DW$210, DW_AT_data_member_location[DW_OP_plus_uconst 0x0]
    2742        .dwattr $C$DW$210, DW_AT_accessibility(DW_ACCESS_public)
    2743        .dwattr $C$DW$210, DW_AT_decl_file("/usr/lib/ti/pru-software-support-package/include/am572x_2_
    2744        .dwattr $C$DW$210, DW_AT_decl_line(0x11e)
    2745        .dwattr $C$DW$210, DW_AT_decl_column(0x0d)
    2746$C$DW$211       .dwtag  DW_TAG_member
    2747        .dwattr $C$DW$211, DW_AT_type(*$C$DW$T$32)
    2748        .dwattr $C$DW$211, DW_AT_name("CH_MAP_10")
    2749        .dwattr $C$DW$211, DW_AT_TI_symbol_name("CH_MAP_10")
    2750        .dwattr $C$DW$211, DW_AT_bit_offset(0x0c), DW_AT_bit_size(0x04)
    2751        .dwattr $C$DW$211, DW_AT_data_member_location[DW_OP_plus_uconst 0x0]
    2752        .dwattr $C$DW$211, DW_AT_accessibility(DW_ACCESS_public)
    2753        .dwattr $C$DW$211, DW_AT_decl_file("/usr/lib/ti/pru-software-support-package/include/am572x_2_
    2754        .dwattr $C$DW$211, DW_AT_decl_line(0x11f)
    2755        .dwattr $C$DW$211, DW_AT_decl_column(0x0d)
    2756$C$DW$212       .dwtag  DW_TAG_member
    2757        .dwattr $C$DW$212, DW_AT_type(*$C$DW$T$32)
    2758        .dwattr $C$DW$212, DW_AT_name("rsvd20")
    2759        .dwattr $C$DW$212, DW_AT_TI_symbol_name("rsvd20")
    2760        .dwattr $C$DW$212, DW_AT_bit_offset(0x08), DW_AT_bit_size(0x04)
    2761        .dwattr $C$DW$212, DW_AT_data_member_location[DW_OP_plus_uconst 0x0]
    2762        .dwattr $C$DW$212, DW_AT_accessibility(DW_ACCESS_public)
    2763        .dwattr $C$DW$212, DW_AT_decl_file("/usr/lib/ti/pru-software-support-package/include/am572x_2_
    2764        .dwattr $C$DW$212, DW_AT_decl_line(0x120)
    2765        .dwattr $C$DW$212, DW_AT_decl_column(0x0d)
    2766$C$DW$213       .dwtag  DW_TAG_member
    2767        .dwattr $C$DW$213, DW_AT_type(*$C$DW$T$32)
    2768        .dwattr $C$DW$213, DW_AT_name("CH_MAP_11")
    2769        .dwattr $C$DW$213, DW_AT_TI_symbol_name("CH_MAP_11")
    2770        .dwattr $C$DW$213, DW_AT_bit_offset(0x04), DW_AT_bit_size(0x04)
    2771        .dwattr $C$DW$213, DW_AT_data_member_location[DW_OP_plus_uconst 0x0]
    2772        .dwattr $C$DW$213, DW_AT_accessibility(DW_ACCESS_public)
    2773        .dwattr $C$DW$213, DW_AT_decl_file("/usr/lib/ti/pru-software-support-package/include/am572x_2_
    2774        .dwattr $C$DW$213, DW_AT_decl_line(0x121)
    2775        .dwattr $C$DW$213, DW_AT_decl_column(0x0d)
    2776$C$DW$214       .dwtag  DW_TAG_member
    2777        .dwattr $C$DW$214, DW_AT_type(*$C$DW$T$32)
    2778        .dwattr $C$DW$214, DW_AT_name("rsvd28")
    2779        .dwattr $C$DW$214, DW_AT_TI_symbol_name("rsvd28")
    2780        .dwattr $C$DW$214, DW_AT_bit_offset(0x00), DW_AT_bit_size(0x04)
    2781        .dwattr $C$DW$214, DW_AT_data_member_location[DW_OP_plus_uconst 0x0]
    2782        .dwattr $C$DW$214, DW_AT_accessibility(DW_ACCESS_public)
    2783        .dwattr $C$DW$214, DW_AT_decl_file("/usr/lib/ti/pru-software-support-package/include/am572x_2_
    2784        .dwattr $C$DW$214, DW_AT_decl_line(0x122)
    2785        .dwattr $C$DW$214, DW_AT_decl_column(0x0d)
    2786        .dwendtag $C$DW$T$59
PRU Assembler Unix v2.1.5 Sat Jul  3 21:31:23 2021

Tools Copyright (c) 2012-2017 Texas Instruments Incorporated
/home/debian/BBAI-SHARED-MEM/pru_codes/tmp/main.asm                  PAGE   52

    2787
    2788        .dwattr $C$DW$T$59, DW_AT_decl_file("/usr/lib/ti/pru-software-support-package/include/am572x_2
    2789        .dwattr $C$DW$T$59, DW_AT_decl_line(0x11a)
    2790        .dwattr $C$DW$T$59, DW_AT_decl_column(0x13)
    2791$C$DW$T$182     .dwtag  DW_TAG_volatile_type
    2792        .dwattr $C$DW$T$182, DW_AT_type(*$C$DW$T$59)
    2793
    2794$C$DW$T$60      .dwtag  DW_TAG_structure_type
    2795        .dwattr $C$DW$T$60, DW_AT_byte_size(0x04)
    2796$C$DW$215       .dwtag  DW_TAG_member
    2797        .dwattr $C$DW$215, DW_AT_type(*$C$DW$T$32)
    2798        .dwattr $C$DW$215, DW_AT_name("CH_MAP_12")
    2799        .dwattr $C$DW$215, DW_AT_TI_symbol_name("CH_MAP_12")
    2800        .dwattr $C$DW$215, DW_AT_bit_offset(0x1c), DW_AT_bit_size(0x04)
    2801        .dwattr $C$DW$215, DW_AT_data_member_location[DW_OP_plus_uconst 0x0]
    2802        .dwattr $C$DW$215, DW_AT_accessibility(DW_ACCESS_public)
    2803        .dwattr $C$DW$215, DW_AT_decl_file("/usr/lib/ti/pru-software-support-package/include/am572x_2_
    2804        .dwattr $C$DW$215, DW_AT_decl_line(0x12c)
    2805        .dwattr $C$DW$215, DW_AT_decl_column(0x0d)
    2806$C$DW$216       .dwtag  DW_TAG_member
    2807        .dwattr $C$DW$216, DW_AT_type(*$C$DW$T$32)
    2808        .dwattr $C$DW$216, DW_AT_name("rsvd4")
    2809        .dwattr $C$DW$216, DW_AT_TI_symbol_name("rsvd4")
    2810        .dwattr $C$DW$216, DW_AT_bit_offset(0x18), DW_AT_bit_size(0x04)
    2811        .dwattr $C$DW$216, DW_AT_data_member_location[DW_OP_plus_uconst 0x0]
    2812        .dwattr $C$DW$216, DW_AT_accessibility(DW_ACCESS_public)
    2813        .dwattr $C$DW$216, DW_AT_decl_file("/usr/lib/ti/pru-software-support-package/include/am572x_2_
    2814        .dwattr $C$DW$216, DW_AT_decl_line(0x12d)
    2815        .dwattr $C$DW$216, DW_AT_decl_column(0x0d)
    2816$C$DW$217       .dwtag  DW_TAG_member
    2817        .dwattr $C$DW$217, DW_AT_type(*$C$DW$T$32)
    2818        .dwattr $C$DW$217, DW_AT_name("CH_MAP_13")
    2819        .dwattr $C$DW$217, DW_AT_TI_symbol_name("CH_MAP_13")
    2820        .dwattr $C$DW$217, DW_AT_bit_offset(0x14), DW_AT_bit_size(0x04)
    2821        .dwattr $C$DW$217, DW_AT_data_member_location[DW_OP_plus_uconst 0x0]
    2822        .dwattr $C$DW$217, DW_AT_accessibility(DW_ACCESS_public)
    2823        .dwattr $C$DW$217, DW_AT_decl_file("/usr/lib/ti/pru-software-support-package/include/am572x_2_
    2824        .dwattr $C$DW$217, DW_AT_decl_line(0x12e)
    2825        .dwattr $C$DW$217, DW_AT_decl_column(0x0d)
    2826$C$DW$218       .dwtag  DW_TAG_member
    2827        .dwattr $C$DW$218, DW_AT_type(*$C$DW$T$32)
    2828        .dwattr $C$DW$218, DW_AT_name("rsvd12")
    2829        .dwattr $C$DW$218, DW_AT_TI_symbol_name("rsvd12")
    2830        .dwattr $C$DW$218, DW_AT_bit_offset(0x10), DW_AT_bit_size(0x04)
    2831        .dwattr $C$DW$218, DW_AT_data_member_location[DW_OP_plus_uconst 0x0]
    2832        .dwattr $C$DW$218, DW_AT_accessibility(DW_ACCESS_public)
    2833        .dwattr $C$DW$218, DW_AT_decl_file("/usr/lib/ti/pru-software-support-package/include/am572x_2_
    2834        .dwattr $C$DW$218, DW_AT_decl_line(0x12f)
    2835        .dwattr $C$DW$218, DW_AT_decl_column(0x0d)
    2836$C$DW$219       .dwtag  DW_TAG_member
    2837        .dwattr $C$DW$219, DW_AT_type(*$C$DW$T$32)
    2838        .dwattr $C$DW$219, DW_AT_name("CH_MAP_14")
    2839        .dwattr $C$DW$219, DW_AT_TI_symbol_name("CH_MAP_14")
    2840        .dwattr $C$DW$219, DW_AT_bit_offset(0x0c), DW_AT_bit_size(0x04)
    2841        .dwattr $C$DW$219, DW_AT_data_member_location[DW_OP_plus_uconst 0x0]
PRU Assembler Unix v2.1.5 Sat Jul  3 21:31:23 2021

Tools Copyright (c) 2012-2017 Texas Instruments Incorporated
/home/debian/BBAI-SHARED-MEM/pru_codes/tmp/main.asm                  PAGE   53

    2842        .dwattr $C$DW$219, DW_AT_accessibility(DW_ACCESS_public)
    2843        .dwattr $C$DW$219, DW_AT_decl_file("/usr/lib/ti/pru-software-support-package/include/am572x_2_
    2844        .dwattr $C$DW$219, DW_AT_decl_line(0x130)
    2845        .dwattr $C$DW$219, DW_AT_decl_column(0x0d)
    2846$C$DW$220       .dwtag  DW_TAG_member
    2847        .dwattr $C$DW$220, DW_AT_type(*$C$DW$T$32)
    2848        .dwattr $C$DW$220, DW_AT_name("rsvd20")
    2849        .dwattr $C$DW$220, DW_AT_TI_symbol_name("rsvd20")
    2850        .dwattr $C$DW$220, DW_AT_bit_offset(0x08), DW_AT_bit_size(0x04)
    2851        .dwattr $C$DW$220, DW_AT_data_member_location[DW_OP_plus_uconst 0x0]
    2852        .dwattr $C$DW$220, DW_AT_accessibility(DW_ACCESS_public)
    2853        .dwattr $C$DW$220, DW_AT_decl_file("/usr/lib/ti/pru-software-support-package/include/am572x_2_
    2854        .dwattr $C$DW$220, DW_AT_decl_line(0x131)
    2855        .dwattr $C$DW$220, DW_AT_decl_column(0x0d)
    2856$C$DW$221       .dwtag  DW_TAG_member
    2857        .dwattr $C$DW$221, DW_AT_type(*$C$DW$T$32)
    2858        .dwattr $C$DW$221, DW_AT_name("CH_MAP_15")
    2859        .dwattr $C$DW$221, DW_AT_TI_symbol_name("CH_MAP_15")
    2860        .dwattr $C$DW$221, DW_AT_bit_offset(0x04), DW_AT_bit_size(0x04)
    2861        .dwattr $C$DW$221, DW_AT_data_member_location[DW_OP_plus_uconst 0x0]
    2862        .dwattr $C$DW$221, DW_AT_accessibility(DW_ACCESS_public)
    2863        .dwattr $C$DW$221, DW_AT_decl_file("/usr/lib/ti/pru-software-support-package/include/am572x_2_
    2864        .dwattr $C$DW$221, DW_AT_decl_line(0x132)
    2865        .dwattr $C$DW$221, DW_AT_decl_column(0x0d)
    2866$C$DW$222       .dwtag  DW_TAG_member
    2867        .dwattr $C$DW$222, DW_AT_type(*$C$DW$T$32)
    2868        .dwattr $C$DW$222, DW_AT_name("rsvd28")
    2869        .dwattr $C$DW$222, DW_AT_TI_symbol_name("rsvd28")
    2870        .dwattr $C$DW$222, DW_AT_bit_offset(0x00), DW_AT_bit_size(0x04)
    2871        .dwattr $C$DW$222, DW_AT_data_member_location[DW_OP_plus_uconst 0x0]
    2872        .dwattr $C$DW$222, DW_AT_accessibility(DW_ACCESS_public)
    2873        .dwattr $C$DW$222, DW_AT_decl_file("/usr/lib/ti/pru-software-support-package/include/am572x_2_
    2874        .dwattr $C$DW$222, DW_AT_decl_line(0x133)
    2875        .dwattr $C$DW$222, DW_AT_decl_column(0x0d)
    2876        .dwendtag $C$DW$T$60
    2877
    2878        .dwattr $C$DW$T$60, DW_AT_decl_file("/usr/lib/ti/pru-software-support-package/include/am572x_2
    2879        .dwattr $C$DW$T$60, DW_AT_decl_line(0x12b)
    2880        .dwattr $C$DW$T$60, DW_AT_decl_column(0x13)
    2881$C$DW$T$184     .dwtag  DW_TAG_volatile_type
    2882        .dwattr $C$DW$T$184, DW_AT_type(*$C$DW$T$60)
    2883
    2884$C$DW$T$61      .dwtag  DW_TAG_structure_type
    2885        .dwattr $C$DW$T$61, DW_AT_byte_size(0x04)
    2886$C$DW$223       .dwtag  DW_TAG_member
    2887        .dwattr $C$DW$223, DW_AT_type(*$C$DW$T$32)
    2888        .dwattr $C$DW$223, DW_AT_name("CH_MAP_16")
    2889        .dwattr $C$DW$223, DW_AT_TI_symbol_name("CH_MAP_16")
    2890        .dwattr $C$DW$223, DW_AT_bit_offset(0x1c), DW_AT_bit_size(0x04)
    2891        .dwattr $C$DW$223, DW_AT_data_member_location[DW_OP_plus_uconst 0x0]
    2892        .dwattr $C$DW$223, DW_AT_accessibility(DW_ACCESS_public)
    2893        .dwattr $C$DW$223, DW_AT_decl_file("/usr/lib/ti/pru-software-support-package/include/am572x_2_
    2894        .dwattr $C$DW$223, DW_AT_decl_line(0x13d)
    2895        .dwattr $C$DW$223, DW_AT_decl_column(0x0d)
    2896$C$DW$224       .dwtag  DW_TAG_member
PRU Assembler Unix v2.1.5 Sat Jul  3 21:31:23 2021

Tools Copyright (c) 2012-2017 Texas Instruments Incorporated
/home/debian/BBAI-SHARED-MEM/pru_codes/tmp/main.asm                  PAGE   54

    2897        .dwattr $C$DW$224, DW_AT_type(*$C$DW$T$32)
    2898        .dwattr $C$DW$224, DW_AT_name("rsvd4")
    2899        .dwattr $C$DW$224, DW_AT_TI_symbol_name("rsvd4")
    2900        .dwattr $C$DW$224, DW_AT_bit_offset(0x18), DW_AT_bit_size(0x04)
    2901        .dwattr $C$DW$224, DW_AT_data_member_location[DW_OP_plus_uconst 0x0]
    2902        .dwattr $C$DW$224, DW_AT_accessibility(DW_ACCESS_public)
    2903        .dwattr $C$DW$224, DW_AT_decl_file("/usr/lib/ti/pru-software-support-package/include/am572x_2_
    2904        .dwattr $C$DW$224, DW_AT_decl_line(0x13e)
    2905        .dwattr $C$DW$224, DW_AT_decl_column(0x0d)
    2906$C$DW$225       .dwtag  DW_TAG_member
    2907        .dwattr $C$DW$225, DW_AT_type(*$C$DW$T$32)
    2908        .dwattr $C$DW$225, DW_AT_name("CH_MAP_17")
    2909        .dwattr $C$DW$225, DW_AT_TI_symbol_name("CH_MAP_17")
    2910        .dwattr $C$DW$225, DW_AT_bit_offset(0x14), DW_AT_bit_size(0x04)
    2911        .dwattr $C$DW$225, DW_AT_data_member_location[DW_OP_plus_uconst 0x0]
    2912        .dwattr $C$DW$225, DW_AT_accessibility(DW_ACCESS_public)
    2913        .dwattr $C$DW$225, DW_AT_decl_file("/usr/lib/ti/pru-software-support-package/include/am572x_2_
    2914        .dwattr $C$DW$225, DW_AT_decl_line(0x13f)
    2915        .dwattr $C$DW$225, DW_AT_decl_column(0x0d)
    2916$C$DW$226       .dwtag  DW_TAG_member
    2917        .dwattr $C$DW$226, DW_AT_type(*$C$DW$T$32)
    2918        .dwattr $C$DW$226, DW_AT_name("rsvd12")
    2919        .dwattr $C$DW$226, DW_AT_TI_symbol_name("rsvd12")
    2920        .dwattr $C$DW$226, DW_AT_bit_offset(0x10), DW_AT_bit_size(0x04)
    2921        .dwattr $C$DW$226, DW_AT_data_member_location[DW_OP_plus_uconst 0x0]
    2922        .dwattr $C$DW$226, DW_AT_accessibility(DW_ACCESS_public)
    2923        .dwattr $C$DW$226, DW_AT_decl_file("/usr/lib/ti/pru-software-support-package/include/am572x_2_
    2924        .dwattr $C$DW$226, DW_AT_decl_line(0x140)
    2925        .dwattr $C$DW$226, DW_AT_decl_column(0x0d)
    2926$C$DW$227       .dwtag  DW_TAG_member
    2927        .dwattr $C$DW$227, DW_AT_type(*$C$DW$T$32)
    2928        .dwattr $C$DW$227, DW_AT_name("CH_MAP_18")
    2929        .dwattr $C$DW$227, DW_AT_TI_symbol_name("CH_MAP_18")
    2930        .dwattr $C$DW$227, DW_AT_bit_offset(0x0c), DW_AT_bit_size(0x04)
    2931        .dwattr $C$DW$227, DW_AT_data_member_location[DW_OP_plus_uconst 0x0]
    2932        .dwattr $C$DW$227, DW_AT_accessibility(DW_ACCESS_public)
    2933        .dwattr $C$DW$227, DW_AT_decl_file("/usr/lib/ti/pru-software-support-package/include/am572x_2_
    2934        .dwattr $C$DW$227, DW_AT_decl_line(0x141)
    2935        .dwattr $C$DW$227, DW_AT_decl_column(0x0d)
    2936$C$DW$228       .dwtag  DW_TAG_member
    2937        .dwattr $C$DW$228, DW_AT_type(*$C$DW$T$32)
    2938        .dwattr $C$DW$228, DW_AT_name("rsvd20")
    2939        .dwattr $C$DW$228, DW_AT_TI_symbol_name("rsvd20")
    2940        .dwattr $C$DW$228, DW_AT_bit_offset(0x08), DW_AT_bit_size(0x04)
    2941        .dwattr $C$DW$228, DW_AT_data_member_location[DW_OP_plus_uconst 0x0]
    2942        .dwattr $C$DW$228, DW_AT_accessibility(DW_ACCESS_public)
    2943        .dwattr $C$DW$228, DW_AT_decl_file("/usr/lib/ti/pru-software-support-package/include/am572x_2_
    2944        .dwattr $C$DW$228, DW_AT_decl_line(0x142)
    2945        .dwattr $C$DW$228, DW_AT_decl_column(0x0d)
    2946$C$DW$229       .dwtag  DW_TAG_member
    2947        .dwattr $C$DW$229, DW_AT_type(*$C$DW$T$32)
    2948        .dwattr $C$DW$229, DW_AT_name("CH_MAP_19")
    2949        .dwattr $C$DW$229, DW_AT_TI_symbol_name("CH_MAP_19")
    2950        .dwattr $C$DW$229, DW_AT_bit_offset(0x04), DW_AT_bit_size(0x04)
    2951        .dwattr $C$DW$229, DW_AT_data_member_location[DW_OP_plus_uconst 0x0]
PRU Assembler Unix v2.1.5 Sat Jul  3 21:31:23 2021

Tools Copyright (c) 2012-2017 Texas Instruments Incorporated
/home/debian/BBAI-SHARED-MEM/pru_codes/tmp/main.asm                  PAGE   55

    2952        .dwattr $C$DW$229, DW_AT_accessibility(DW_ACCESS_public)
    2953        .dwattr $C$DW$229, DW_AT_decl_file("/usr/lib/ti/pru-software-support-package/include/am572x_2_
    2954        .dwattr $C$DW$229, DW_AT_decl_line(0x143)
    2955        .dwattr $C$DW$229, DW_AT_decl_column(0x0d)
    2956$C$DW$230       .dwtag  DW_TAG_member
    2957        .dwattr $C$DW$230, DW_AT_type(*$C$DW$T$32)
    2958        .dwattr $C$DW$230, DW_AT_name("rsvd28")
    2959        .dwattr $C$DW$230, DW_AT_TI_symbol_name("rsvd28")
    2960        .dwattr $C$DW$230, DW_AT_bit_offset(0x00), DW_AT_bit_size(0x04)
    2961        .dwattr $C$DW$230, DW_AT_data_member_location[DW_OP_plus_uconst 0x0]
    2962        .dwattr $C$DW$230, DW_AT_accessibility(DW_ACCESS_public)
    2963        .dwattr $C$DW$230, DW_AT_decl_file("/usr/lib/ti/pru-software-support-package/include/am572x_2_
    2964        .dwattr $C$DW$230, DW_AT_decl_line(0x144)
    2965        .dwattr $C$DW$230, DW_AT_decl_column(0x0d)
    2966        .dwendtag $C$DW$T$61
    2967
    2968        .dwattr $C$DW$T$61, DW_AT_decl_file("/usr/lib/ti/pru-software-support-package/include/am572x_2
    2969        .dwattr $C$DW$T$61, DW_AT_decl_line(0x13c)
    2970        .dwattr $C$DW$T$61, DW_AT_decl_column(0x13)
    2971$C$DW$T$186     .dwtag  DW_TAG_volatile_type
    2972        .dwattr $C$DW$T$186, DW_AT_type(*$C$DW$T$61)
    2973
    2974$C$DW$T$62      .dwtag  DW_TAG_structure_type
    2975        .dwattr $C$DW$T$62, DW_AT_byte_size(0x04)
    2976$C$DW$231       .dwtag  DW_TAG_member
    2977        .dwattr $C$DW$231, DW_AT_type(*$C$DW$T$32)
    2978        .dwattr $C$DW$231, DW_AT_name("CH_MAP_20")
    2979        .dwattr $C$DW$231, DW_AT_TI_symbol_name("CH_MAP_20")
    2980        .dwattr $C$DW$231, DW_AT_bit_offset(0x1c), DW_AT_bit_size(0x04)
    2981        .dwattr $C$DW$231, DW_AT_data_member_location[DW_OP_plus_uconst 0x0]
    2982        .dwattr $C$DW$231, DW_AT_accessibility(DW_ACCESS_public)
    2983        .dwattr $C$DW$231, DW_AT_decl_file("/usr/lib/ti/pru-software-support-package/include/am572x_2_
    2984        .dwattr $C$DW$231, DW_AT_decl_line(0x14e)
    2985        .dwattr $C$DW$231, DW_AT_decl_column(0x0d)
    2986$C$DW$232       .dwtag  DW_TAG_member
    2987        .dwattr $C$DW$232, DW_AT_type(*$C$DW$T$32)
    2988        .dwattr $C$DW$232, DW_AT_name("rsvd4")
    2989        .dwattr $C$DW$232, DW_AT_TI_symbol_name("rsvd4")
    2990        .dwattr $C$DW$232, DW_AT_bit_offset(0x18), DW_AT_bit_size(0x04)
    2991        .dwattr $C$DW$232, DW_AT_data_member_location[DW_OP_plus_uconst 0x0]
    2992        .dwattr $C$DW$232, DW_AT_accessibility(DW_ACCESS_public)
    2993        .dwattr $C$DW$232, DW_AT_decl_file("/usr/lib/ti/pru-software-support-package/include/am572x_2_
    2994        .dwattr $C$DW$232, DW_AT_decl_line(0x14f)
    2995        .dwattr $C$DW$232, DW_AT_decl_column(0x0d)
    2996$C$DW$233       .dwtag  DW_TAG_member
    2997        .dwattr $C$DW$233, DW_AT_type(*$C$DW$T$32)
    2998        .dwattr $C$DW$233, DW_AT_name("CH_MAP_21")
    2999        .dwattr $C$DW$233, DW_AT_TI_symbol_name("CH_MAP_21")
    3000        .dwattr $C$DW$233, DW_AT_bit_offset(0x14), DW_AT_bit_size(0x04)
    3001        .dwattr $C$DW$233, DW_AT_data_member_location[DW_OP_plus_uconst 0x0]
    3002        .dwattr $C$DW$233, DW_AT_accessibility(DW_ACCESS_public)
    3003        .dwattr $C$DW$233, DW_AT_decl_file("/usr/lib/ti/pru-software-support-package/include/am572x_2_
    3004        .dwattr $C$DW$233, DW_AT_decl_line(0x150)
    3005        .dwattr $C$DW$233, DW_AT_decl_column(0x0d)
    3006$C$DW$234       .dwtag  DW_TAG_member
PRU Assembler Unix v2.1.5 Sat Jul  3 21:31:23 2021

Tools Copyright (c) 2012-2017 Texas Instruments Incorporated
/home/debian/BBAI-SHARED-MEM/pru_codes/tmp/main.asm                  PAGE   56

    3007        .dwattr $C$DW$234, DW_AT_type(*$C$DW$T$32)
    3008        .dwattr $C$DW$234, DW_AT_name("rsvd12")
    3009        .dwattr $C$DW$234, DW_AT_TI_symbol_name("rsvd12")
    3010        .dwattr $C$DW$234, DW_AT_bit_offset(0x10), DW_AT_bit_size(0x04)
    3011        .dwattr $C$DW$234, DW_AT_data_member_location[DW_OP_plus_uconst 0x0]
    3012        .dwattr $C$DW$234, DW_AT_accessibility(DW_ACCESS_public)
    3013        .dwattr $C$DW$234, DW_AT_decl_file("/usr/lib/ti/pru-software-support-package/include/am572x_2_
    3014        .dwattr $C$DW$234, DW_AT_decl_line(0x151)
    3015        .dwattr $C$DW$234, DW_AT_decl_column(0x0d)
    3016$C$DW$235       .dwtag  DW_TAG_member
    3017        .dwattr $C$DW$235, DW_AT_type(*$C$DW$T$32)
    3018        .dwattr $C$DW$235, DW_AT_name("CH_MAP_22")
    3019        .dwattr $C$DW$235, DW_AT_TI_symbol_name("CH_MAP_22")
    3020        .dwattr $C$DW$235, DW_AT_bit_offset(0x0c), DW_AT_bit_size(0x04)
    3021        .dwattr $C$DW$235, DW_AT_data_member_location[DW_OP_plus_uconst 0x0]
    3022        .dwattr $C$DW$235, DW_AT_accessibility(DW_ACCESS_public)
    3023        .dwattr $C$DW$235, DW_AT_decl_file("/usr/lib/ti/pru-software-support-package/include/am572x_2_
    3024        .dwattr $C$DW$235, DW_AT_decl_line(0x152)
    3025        .dwattr $C$DW$235, DW_AT_decl_column(0x0d)
    3026$C$DW$236       .dwtag  DW_TAG_member
    3027        .dwattr $C$DW$236, DW_AT_type(*$C$DW$T$32)
    3028        .dwattr $C$DW$236, DW_AT_name("rsvd20")
    3029        .dwattr $C$DW$236, DW_AT_TI_symbol_name("rsvd20")
    3030        .dwattr $C$DW$236, DW_AT_bit_offset(0x08), DW_AT_bit_size(0x04)
    3031        .dwattr $C$DW$236, DW_AT_data_member_location[DW_OP_plus_uconst 0x0]
    3032        .dwattr $C$DW$236, DW_AT_accessibility(DW_ACCESS_public)
    3033        .dwattr $C$DW$236, DW_AT_decl_file("/usr/lib/ti/pru-software-support-package/include/am572x_2_
    3034        .dwattr $C$DW$236, DW_AT_decl_line(0x153)
    3035        .dwattr $C$DW$236, DW_AT_decl_column(0x0d)
    3036$C$DW$237       .dwtag  DW_TAG_member
    3037        .dwattr $C$DW$237, DW_AT_type(*$C$DW$T$32)
    3038        .dwattr $C$DW$237, DW_AT_name("CH_MAP_23")
    3039        .dwattr $C$DW$237, DW_AT_TI_symbol_name("CH_MAP_23")
    3040        .dwattr $C$DW$237, DW_AT_bit_offset(0x04), DW_AT_bit_size(0x04)
    3041        .dwattr $C$DW$237, DW_AT_data_member_location[DW_OP_plus_uconst 0x0]
    3042        .dwattr $C$DW$237, DW_AT_accessibility(DW_ACCESS_public)
    3043        .dwattr $C$DW$237, DW_AT_decl_file("/usr/lib/ti/pru-software-support-package/include/am572x_2_
    3044        .dwattr $C$DW$237, DW_AT_decl_line(0x154)
    3045        .dwattr $C$DW$237, DW_AT_decl_column(0x0d)
    3046$C$DW$238       .dwtag  DW_TAG_member
    3047        .dwattr $C$DW$238, DW_AT_type(*$C$DW$T$32)
    3048        .dwattr $C$DW$238, DW_AT_name("rsvd28")
    3049        .dwattr $C$DW$238, DW_AT_TI_symbol_name("rsvd28")
    3050        .dwattr $C$DW$238, DW_AT_bit_offset(0x00), DW_AT_bit_size(0x04)
    3051        .dwattr $C$DW$238, DW_AT_data_member_location[DW_OP_plus_uconst 0x0]
    3052        .dwattr $C$DW$238, DW_AT_accessibility(DW_ACCESS_public)
    3053        .dwattr $C$DW$238, DW_AT_decl_file("/usr/lib/ti/pru-software-support-package/include/am572x_2_
    3054        .dwattr $C$DW$238, DW_AT_decl_line(0x155)
    3055        .dwattr $C$DW$238, DW_AT_decl_column(0x0d)
    3056        .dwendtag $C$DW$T$62
    3057
    3058        .dwattr $C$DW$T$62, DW_AT_decl_file("/usr/lib/ti/pru-software-support-package/include/am572x_2
    3059        .dwattr $C$DW$T$62, DW_AT_decl_line(0x14d)
    3060        .dwattr $C$DW$T$62, DW_AT_decl_column(0x13)
    3061$C$DW$T$188     .dwtag  DW_TAG_volatile_type
PRU Assembler Unix v2.1.5 Sat Jul  3 21:31:23 2021

Tools Copyright (c) 2012-2017 Texas Instruments Incorporated
/home/debian/BBAI-SHARED-MEM/pru_codes/tmp/main.asm                  PAGE   57

    3062        .dwattr $C$DW$T$188, DW_AT_type(*$C$DW$T$62)
    3063
    3064$C$DW$T$63      .dwtag  DW_TAG_structure_type
    3065        .dwattr $C$DW$T$63, DW_AT_byte_size(0x04)
    3066$C$DW$239       .dwtag  DW_TAG_member
    3067        .dwattr $C$DW$239, DW_AT_type(*$C$DW$T$32)
    3068        .dwattr $C$DW$239, DW_AT_name("CH_MAP_24")
    3069        .dwattr $C$DW$239, DW_AT_TI_symbol_name("CH_MAP_24")
    3070        .dwattr $C$DW$239, DW_AT_bit_offset(0x1c), DW_AT_bit_size(0x04)
    3071        .dwattr $C$DW$239, DW_AT_data_member_location[DW_OP_plus_uconst 0x0]
    3072        .dwattr $C$DW$239, DW_AT_accessibility(DW_ACCESS_public)
    3073        .dwattr $C$DW$239, DW_AT_decl_file("/usr/lib/ti/pru-software-support-package/include/am572x_2_
    3074        .dwattr $C$DW$239, DW_AT_decl_line(0x15f)
    3075        .dwattr $C$DW$239, DW_AT_decl_column(0x0d)
    3076$C$DW$240       .dwtag  DW_TAG_member
    3077        .dwattr $C$DW$240, DW_AT_type(*$C$DW$T$32)
    3078        .dwattr $C$DW$240, DW_AT_name("rsvd4")
    3079        .dwattr $C$DW$240, DW_AT_TI_symbol_name("rsvd4")
    3080        .dwattr $C$DW$240, DW_AT_bit_offset(0x18), DW_AT_bit_size(0x04)
    3081        .dwattr $C$DW$240, DW_AT_data_member_location[DW_OP_plus_uconst 0x0]
    3082        .dwattr $C$DW$240, DW_AT_accessibility(DW_ACCESS_public)
    3083        .dwattr $C$DW$240, DW_AT_decl_file("/usr/lib/ti/pru-software-support-package/include/am572x_2_
    3084        .dwattr $C$DW$240, DW_AT_decl_line(0x160)
    3085        .dwattr $C$DW$240, DW_AT_decl_column(0x0d)
    3086$C$DW$241       .dwtag  DW_TAG_member
    3087        .dwattr $C$DW$241, DW_AT_type(*$C$DW$T$32)
    3088        .dwattr $C$DW$241, DW_AT_name("CH_MAP_25")
    3089        .dwattr $C$DW$241, DW_AT_TI_symbol_name("CH_MAP_25")
    3090        .dwattr $C$DW$241, DW_AT_bit_offset(0x14), DW_AT_bit_size(0x04)
    3091        .dwattr $C$DW$241, DW_AT_data_member_location[DW_OP_plus_uconst 0x0]
    3092        .dwattr $C$DW$241, DW_AT_accessibility(DW_ACCESS_public)
    3093        .dwattr $C$DW$241, DW_AT_decl_file("/usr/lib/ti/pru-software-support-package/include/am572x_2_
    3094        .dwattr $C$DW$241, DW_AT_decl_line(0x161)
    3095        .dwattr $C$DW$241, DW_AT_decl_column(0x0d)
    3096$C$DW$242       .dwtag  DW_TAG_member
    3097        .dwattr $C$DW$242, DW_AT_type(*$C$DW$T$32)
    3098        .dwattr $C$DW$242, DW_AT_name("rsvd12")
    3099        .dwattr $C$DW$242, DW_AT_TI_symbol_name("rsvd12")
    3100        .dwattr $C$DW$242, DW_AT_bit_offset(0x10), DW_AT_bit_size(0x04)
    3101        .dwattr $C$DW$242, DW_AT_data_member_location[DW_OP_plus_uconst 0x0]
    3102        .dwattr $C$DW$242, DW_AT_accessibility(DW_ACCESS_public)
    3103        .dwattr $C$DW$242, DW_AT_decl_file("/usr/lib/ti/pru-software-support-package/include/am572x_2_
    3104        .dwattr $C$DW$242, DW_AT_decl_line(0x162)
    3105        .dwattr $C$DW$242, DW_AT_decl_column(0x0d)
    3106$C$DW$243       .dwtag  DW_TAG_member
    3107        .dwattr $C$DW$243, DW_AT_type(*$C$DW$T$32)
    3108        .dwattr $C$DW$243, DW_AT_name("CH_MAP_26")
    3109        .dwattr $C$DW$243, DW_AT_TI_symbol_name("CH_MAP_26")
    3110        .dwattr $C$DW$243, DW_AT_bit_offset(0x0c), DW_AT_bit_size(0x04)
    3111        .dwattr $C$DW$243, DW_AT_data_member_location[DW_OP_plus_uconst 0x0]
    3112        .dwattr $C$DW$243, DW_AT_accessibility(DW_ACCESS_public)
    3113        .dwattr $C$DW$243, DW_AT_decl_file("/usr/lib/ti/pru-software-support-package/include/am572x_2_
    3114        .dwattr $C$DW$243, DW_AT_decl_line(0x163)
    3115        .dwattr $C$DW$243, DW_AT_decl_column(0x0d)
    3116$C$DW$244       .dwtag  DW_TAG_member
PRU Assembler Unix v2.1.5 Sat Jul  3 21:31:23 2021

Tools Copyright (c) 2012-2017 Texas Instruments Incorporated
/home/debian/BBAI-SHARED-MEM/pru_codes/tmp/main.asm                  PAGE   58

    3117        .dwattr $C$DW$244, DW_AT_type(*$C$DW$T$32)
    3118        .dwattr $C$DW$244, DW_AT_name("rsvd20")
    3119        .dwattr $C$DW$244, DW_AT_TI_symbol_name("rsvd20")
    3120        .dwattr $C$DW$244, DW_AT_bit_offset(0x08), DW_AT_bit_size(0x04)
    3121        .dwattr $C$DW$244, DW_AT_data_member_location[DW_OP_plus_uconst 0x0]
    3122        .dwattr $C$DW$244, DW_AT_accessibility(DW_ACCESS_public)
    3123        .dwattr $C$DW$244, DW_AT_decl_file("/usr/lib/ti/pru-software-support-package/include/am572x_2_
    3124        .dwattr $C$DW$244, DW_AT_decl_line(0x164)
    3125        .dwattr $C$DW$244, DW_AT_decl_column(0x0d)
    3126$C$DW$245       .dwtag  DW_TAG_member
    3127        .dwattr $C$DW$245, DW_AT_type(*$C$DW$T$32)
    3128        .dwattr $C$DW$245, DW_AT_name("CH_MAP_27")
    3129        .dwattr $C$DW$245, DW_AT_TI_symbol_name("CH_MAP_27")
    3130        .dwattr $C$DW$245, DW_AT_bit_offset(0x04), DW_AT_bit_size(0x04)
    3131        .dwattr $C$DW$245, DW_AT_data_member_location[DW_OP_plus_uconst 0x0]
    3132        .dwattr $C$DW$245, DW_AT_accessibility(DW_ACCESS_public)
    3133        .dwattr $C$DW$245, DW_AT_decl_file("/usr/lib/ti/pru-software-support-package/include/am572x_2_
    3134        .dwattr $C$DW$245, DW_AT_decl_line(0x165)
    3135        .dwattr $C$DW$245, DW_AT_decl_column(0x0d)
    3136$C$DW$246       .dwtag  DW_TAG_member
    3137        .dwattr $C$DW$246, DW_AT_type(*$C$DW$T$32)
    3138        .dwattr $C$DW$246, DW_AT_name("rsvd28")
    3139        .dwattr $C$DW$246, DW_AT_TI_symbol_name("rsvd28")
    3140        .dwattr $C$DW$246, DW_AT_bit_offset(0x00), DW_AT_bit_size(0x04)
    3141        .dwattr $C$DW$246, DW_AT_data_member_location[DW_OP_plus_uconst 0x0]
    3142        .dwattr $C$DW$246, DW_AT_accessibility(DW_ACCESS_public)
    3143        .dwattr $C$DW$246, DW_AT_decl_file("/usr/lib/ti/pru-software-support-package/include/am572x_2_
    3144        .dwattr $C$DW$246, DW_AT_decl_line(0x166)
    3145        .dwattr $C$DW$246, DW_AT_decl_column(0x0d)
    3146        .dwendtag $C$DW$T$63
    3147
    3148        .dwattr $C$DW$T$63, DW_AT_decl_file("/usr/lib/ti/pru-software-support-package/include/am572x_2
    3149        .dwattr $C$DW$T$63, DW_AT_decl_line(0x15e)
    3150        .dwattr $C$DW$T$63, DW_AT_decl_column(0x13)
    3151$C$DW$T$190     .dwtag  DW_TAG_volatile_type
    3152        .dwattr $C$DW$T$190, DW_AT_type(*$C$DW$T$63)
    3153
    3154$C$DW$T$64      .dwtag  DW_TAG_structure_type
    3155        .dwattr $C$DW$T$64, DW_AT_byte_size(0x04)
    3156$C$DW$247       .dwtag  DW_TAG_member
    3157        .dwattr $C$DW$247, DW_AT_type(*$C$DW$T$32)
    3158        .dwattr $C$DW$247, DW_AT_name("CH_MAP_28")
    3159        .dwattr $C$DW$247, DW_AT_TI_symbol_name("CH_MAP_28")
    3160        .dwattr $C$DW$247, DW_AT_bit_offset(0x1c), DW_AT_bit_size(0x04)
    3161        .dwattr $C$DW$247, DW_AT_data_member_location[DW_OP_plus_uconst 0x0]
    3162        .dwattr $C$DW$247, DW_AT_accessibility(DW_ACCESS_public)
    3163        .dwattr $C$DW$247, DW_AT_decl_file("/usr/lib/ti/pru-software-support-package/include/am572x_2_
    3164        .dwattr $C$DW$247, DW_AT_decl_line(0x170)
    3165        .dwattr $C$DW$247, DW_AT_decl_column(0x0d)
    3166$C$DW$248       .dwtag  DW_TAG_member
    3167        .dwattr $C$DW$248, DW_AT_type(*$C$DW$T$32)
    3168        .dwattr $C$DW$248, DW_AT_name("rsvd4")
    3169        .dwattr $C$DW$248, DW_AT_TI_symbol_name("rsvd4")
    3170        .dwattr $C$DW$248, DW_AT_bit_offset(0x18), DW_AT_bit_size(0x04)
    3171        .dwattr $C$DW$248, DW_AT_data_member_location[DW_OP_plus_uconst 0x0]
PRU Assembler Unix v2.1.5 Sat Jul  3 21:31:23 2021

Tools Copyright (c) 2012-2017 Texas Instruments Incorporated
/home/debian/BBAI-SHARED-MEM/pru_codes/tmp/main.asm                  PAGE   59

    3172        .dwattr $C$DW$248, DW_AT_accessibility(DW_ACCESS_public)
    3173        .dwattr $C$DW$248, DW_AT_decl_file("/usr/lib/ti/pru-software-support-package/include/am572x_2_
    3174        .dwattr $C$DW$248, DW_AT_decl_line(0x171)
    3175        .dwattr $C$DW$248, DW_AT_decl_column(0x0d)
    3176$C$DW$249       .dwtag  DW_TAG_member
    3177        .dwattr $C$DW$249, DW_AT_type(*$C$DW$T$32)
    3178        .dwattr $C$DW$249, DW_AT_name("CH_MAP_29")
    3179        .dwattr $C$DW$249, DW_AT_TI_symbol_name("CH_MAP_29")
    3180        .dwattr $C$DW$249, DW_AT_bit_offset(0x14), DW_AT_bit_size(0x04)
    3181        .dwattr $C$DW$249, DW_AT_data_member_location[DW_OP_plus_uconst 0x0]
    3182        .dwattr $C$DW$249, DW_AT_accessibility(DW_ACCESS_public)
    3183        .dwattr $C$DW$249, DW_AT_decl_file("/usr/lib/ti/pru-software-support-package/include/am572x_2_
    3184        .dwattr $C$DW$249, DW_AT_decl_line(0x172)
    3185        .dwattr $C$DW$249, DW_AT_decl_column(0x0d)
    3186$C$DW$250       .dwtag  DW_TAG_member
    3187        .dwattr $C$DW$250, DW_AT_type(*$C$DW$T$32)
    3188        .dwattr $C$DW$250, DW_AT_name("rsvd12")
    3189        .dwattr $C$DW$250, DW_AT_TI_symbol_name("rsvd12")
    3190        .dwattr $C$DW$250, DW_AT_bit_offset(0x10), DW_AT_bit_size(0x04)
    3191        .dwattr $C$DW$250, DW_AT_data_member_location[DW_OP_plus_uconst 0x0]
    3192        .dwattr $C$DW$250, DW_AT_accessibility(DW_ACCESS_public)
    3193        .dwattr $C$DW$250, DW_AT_decl_file("/usr/lib/ti/pru-software-support-package/include/am572x_2_
    3194        .dwattr $C$DW$250, DW_AT_decl_line(0x173)
    3195        .dwattr $C$DW$250, DW_AT_decl_column(0x0d)
    3196$C$DW$251       .dwtag  DW_TAG_member
    3197        .dwattr $C$DW$251, DW_AT_type(*$C$DW$T$32)
    3198        .dwattr $C$DW$251, DW_AT_name("CH_MAP_30")
    3199        .dwattr $C$DW$251, DW_AT_TI_symbol_name("CH_MAP_30")
    3200        .dwattr $C$DW$251, DW_AT_bit_offset(0x0c), DW_AT_bit_size(0x04)
    3201        .dwattr $C$DW$251, DW_AT_data_member_location[DW_OP_plus_uconst 0x0]
    3202        .dwattr $C$DW$251, DW_AT_accessibility(DW_ACCESS_public)
    3203        .dwattr $C$DW$251, DW_AT_decl_file("/usr/lib/ti/pru-software-support-package/include/am572x_2_
    3204        .dwattr $C$DW$251, DW_AT_decl_line(0x174)
    3205        .dwattr $C$DW$251, DW_AT_decl_column(0x0d)
    3206$C$DW$252       .dwtag  DW_TAG_member
    3207        .dwattr $C$DW$252, DW_AT_type(*$C$DW$T$32)
    3208        .dwattr $C$DW$252, DW_AT_name("rsvd20")
    3209        .dwattr $C$DW$252, DW_AT_TI_symbol_name("rsvd20")
    3210        .dwattr $C$DW$252, DW_AT_bit_offset(0x08), DW_AT_bit_size(0x04)
    3211        .dwattr $C$DW$252, DW_AT_data_member_location[DW_OP_plus_uconst 0x0]
    3212        .dwattr $C$DW$252, DW_AT_accessibility(DW_ACCESS_public)
    3213        .dwattr $C$DW$252, DW_AT_decl_file("/usr/lib/ti/pru-software-support-package/include/am572x_2_
    3214        .dwattr $C$DW$252, DW_AT_decl_line(0x175)
    3215        .dwattr $C$DW$252, DW_AT_decl_column(0x0d)
    3216$C$DW$253       .dwtag  DW_TAG_member
    3217        .dwattr $C$DW$253, DW_AT_type(*$C$DW$T$32)
    3218        .dwattr $C$DW$253, DW_AT_name("CH_MAP_31")
    3219        .dwattr $C$DW$253, DW_AT_TI_symbol_name("CH_MAP_31")
    3220        .dwattr $C$DW$253, DW_AT_bit_offset(0x04), DW_AT_bit_size(0x04)
    3221        .dwattr $C$DW$253, DW_AT_data_member_location[DW_OP_plus_uconst 0x0]
    3222        .dwattr $C$DW$253, DW_AT_accessibility(DW_ACCESS_public)
    3223        .dwattr $C$DW$253, DW_AT_decl_file("/usr/lib/ti/pru-software-support-package/include/am572x_2_
    3224        .dwattr $C$DW$253, DW_AT_decl_line(0x176)
    3225        .dwattr $C$DW$253, DW_AT_decl_column(0x0d)
    3226$C$DW$254       .dwtag  DW_TAG_member
PRU Assembler Unix v2.1.5 Sat Jul  3 21:31:23 2021

Tools Copyright (c) 2012-2017 Texas Instruments Incorporated
/home/debian/BBAI-SHARED-MEM/pru_codes/tmp/main.asm                  PAGE   60

    3227        .dwattr $C$DW$254, DW_AT_type(*$C$DW$T$32)
    3228        .dwattr $C$DW$254, DW_AT_name("rsvd28")
    3229        .dwattr $C$DW$254, DW_AT_TI_symbol_name("rsvd28")
    3230        .dwattr $C$DW$254, DW_AT_bit_offset(0x00), DW_AT_bit_size(0x04)
    3231        .dwattr $C$DW$254, DW_AT_data_member_location[DW_OP_plus_uconst 0x0]
    3232        .dwattr $C$DW$254, DW_AT_accessibility(DW_ACCESS_public)
    3233        .dwattr $C$DW$254, DW_AT_decl_file("/usr/lib/ti/pru-software-support-package/include/am572x_2_
    3234        .dwattr $C$DW$254, DW_AT_decl_line(0x177)
    3235        .dwattr $C$DW$254, DW_AT_decl_column(0x0d)
    3236        .dwendtag $C$DW$T$64
    3237
    3238        .dwattr $C$DW$T$64, DW_AT_decl_file("/usr/lib/ti/pru-software-support-package/include/am572x_2
    3239        .dwattr $C$DW$T$64, DW_AT_decl_line(0x16f)
    3240        .dwattr $C$DW$T$64, DW_AT_decl_column(0x13)
    3241$C$DW$T$192     .dwtag  DW_TAG_volatile_type
    3242        .dwattr $C$DW$T$192, DW_AT_type(*$C$DW$T$64)
    3243
    3244$C$DW$T$65      .dwtag  DW_TAG_structure_type
    3245        .dwattr $C$DW$T$65, DW_AT_byte_size(0x04)
    3246$C$DW$255       .dwtag  DW_TAG_member
    3247        .dwattr $C$DW$255, DW_AT_type(*$C$DW$T$32)
    3248        .dwattr $C$DW$255, DW_AT_name("CH_MAP_32")
    3249        .dwattr $C$DW$255, DW_AT_TI_symbol_name("CH_MAP_32")
    3250        .dwattr $C$DW$255, DW_AT_bit_offset(0x1c), DW_AT_bit_size(0x04)
    3251        .dwattr $C$DW$255, DW_AT_data_member_location[DW_OP_plus_uconst 0x0]
    3252        .dwattr $C$DW$255, DW_AT_accessibility(DW_ACCESS_public)
    3253        .dwattr $C$DW$255, DW_AT_decl_file("/usr/lib/ti/pru-software-support-package/include/am572x_2_
    3254        .dwattr $C$DW$255, DW_AT_decl_line(0x181)
    3255        .dwattr $C$DW$255, DW_AT_decl_column(0x0d)
    3256$C$DW$256       .dwtag  DW_TAG_member
    3257        .dwattr $C$DW$256, DW_AT_type(*$C$DW$T$32)
    3258        .dwattr $C$DW$256, DW_AT_name("rsvd4")
    3259        .dwattr $C$DW$256, DW_AT_TI_symbol_name("rsvd4")
    3260        .dwattr $C$DW$256, DW_AT_bit_offset(0x18), DW_AT_bit_size(0x04)
    3261        .dwattr $C$DW$256, DW_AT_data_member_location[DW_OP_plus_uconst 0x0]
    3262        .dwattr $C$DW$256, DW_AT_accessibility(DW_ACCESS_public)
    3263        .dwattr $C$DW$256, DW_AT_decl_file("/usr/lib/ti/pru-software-support-package/include/am572x_2_
    3264        .dwattr $C$DW$256, DW_AT_decl_line(0x182)
    3265        .dwattr $C$DW$256, DW_AT_decl_column(0x0d)
    3266$C$DW$257       .dwtag  DW_TAG_member
    3267        .dwattr $C$DW$257, DW_AT_type(*$C$DW$T$32)
    3268        .dwattr $C$DW$257, DW_AT_name("CH_MAP_33")
    3269        .dwattr $C$DW$257, DW_AT_TI_symbol_name("CH_MAP_33")
    3270        .dwattr $C$DW$257, DW_AT_bit_offset(0x14), DW_AT_bit_size(0x04)
    3271        .dwattr $C$DW$257, DW_AT_data_member_location[DW_OP_plus_uconst 0x0]
    3272        .dwattr $C$DW$257, DW_AT_accessibility(DW_ACCESS_public)
    3273        .dwattr $C$DW$257, DW_AT_decl_file("/usr/lib/ti/pru-software-support-package/include/am572x_2_
    3274        .dwattr $C$DW$257, DW_AT_decl_line(0x183)
    3275        .dwattr $C$DW$257, DW_AT_decl_column(0x0d)
    3276$C$DW$258       .dwtag  DW_TAG_member
    3277        .dwattr $C$DW$258, DW_AT_type(*$C$DW$T$32)
    3278        .dwattr $C$DW$258, DW_AT_name("rsvd12")
    3279        .dwattr $C$DW$258, DW_AT_TI_symbol_name("rsvd12")
    3280        .dwattr $C$DW$258, DW_AT_bit_offset(0x10), DW_AT_bit_size(0x04)
    3281        .dwattr $C$DW$258, DW_AT_data_member_location[DW_OP_plus_uconst 0x0]
PRU Assembler Unix v2.1.5 Sat Jul  3 21:31:23 2021

Tools Copyright (c) 2012-2017 Texas Instruments Incorporated
/home/debian/BBAI-SHARED-MEM/pru_codes/tmp/main.asm                  PAGE   61

    3282        .dwattr $C$DW$258, DW_AT_accessibility(DW_ACCESS_public)
    3283        .dwattr $C$DW$258, DW_AT_decl_file("/usr/lib/ti/pru-software-support-package/include/am572x_2_
    3284        .dwattr $C$DW$258, DW_AT_decl_line(0x184)
    3285        .dwattr $C$DW$258, DW_AT_decl_column(0x0d)
    3286$C$DW$259       .dwtag  DW_TAG_member
    3287        .dwattr $C$DW$259, DW_AT_type(*$C$DW$T$32)
    3288        .dwattr $C$DW$259, DW_AT_name("CH_MAP_34")
    3289        .dwattr $C$DW$259, DW_AT_TI_symbol_name("CH_MAP_34")
    3290        .dwattr $C$DW$259, DW_AT_bit_offset(0x0c), DW_AT_bit_size(0x04)
    3291        .dwattr $C$DW$259, DW_AT_data_member_location[DW_OP_plus_uconst 0x0]
    3292        .dwattr $C$DW$259, DW_AT_accessibility(DW_ACCESS_public)
    3293        .dwattr $C$DW$259, DW_AT_decl_file("/usr/lib/ti/pru-software-support-package/include/am572x_2_
    3294        .dwattr $C$DW$259, DW_AT_decl_line(0x185)
    3295        .dwattr $C$DW$259, DW_AT_decl_column(0x0d)
    3296$C$DW$260       .dwtag  DW_TAG_member
    3297        .dwattr $C$DW$260, DW_AT_type(*$C$DW$T$32)
    3298        .dwattr $C$DW$260, DW_AT_name("rsvd20")
    3299        .dwattr $C$DW$260, DW_AT_TI_symbol_name("rsvd20")
    3300        .dwattr $C$DW$260, DW_AT_bit_offset(0x08), DW_AT_bit_size(0x04)
    3301        .dwattr $C$DW$260, DW_AT_data_member_location[DW_OP_plus_uconst 0x0]
    3302        .dwattr $C$DW$260, DW_AT_accessibility(DW_ACCESS_public)
    3303        .dwattr $C$DW$260, DW_AT_decl_file("/usr/lib/ti/pru-software-support-package/include/am572x_2_
    3304        .dwattr $C$DW$260, DW_AT_decl_line(0x186)
    3305        .dwattr $C$DW$260, DW_AT_decl_column(0x0d)
    3306$C$DW$261       .dwtag  DW_TAG_member
    3307        .dwattr $C$DW$261, DW_AT_type(*$C$DW$T$32)
    3308        .dwattr $C$DW$261, DW_AT_name("CH_MAP_35")
    3309        .dwattr $C$DW$261, DW_AT_TI_symbol_name("CH_MAP_35")
    3310        .dwattr $C$DW$261, DW_AT_bit_offset(0x04), DW_AT_bit_size(0x04)
    3311        .dwattr $C$DW$261, DW_AT_data_member_location[DW_OP_plus_uconst 0x0]
    3312        .dwattr $C$DW$261, DW_AT_accessibility(DW_ACCESS_public)
    3313        .dwattr $C$DW$261, DW_AT_decl_file("/usr/lib/ti/pru-software-support-package/include/am572x_2_
    3314        .dwattr $C$DW$261, DW_AT_decl_line(0x187)
    3315        .dwattr $C$DW$261, DW_AT_decl_column(0x0d)
    3316$C$DW$262       .dwtag  DW_TAG_member
    3317        .dwattr $C$DW$262, DW_AT_type(*$C$DW$T$32)
    3318        .dwattr $C$DW$262, DW_AT_name("rsvd28")
    3319        .dwattr $C$DW$262, DW_AT_TI_symbol_name("rsvd28")
    3320        .dwattr $C$DW$262, DW_AT_bit_offset(0x00), DW_AT_bit_size(0x04)
    3321        .dwattr $C$DW$262, DW_AT_data_member_location[DW_OP_plus_uconst 0x0]
    3322        .dwattr $C$DW$262, DW_AT_accessibility(DW_ACCESS_public)
    3323        .dwattr $C$DW$262, DW_AT_decl_file("/usr/lib/ti/pru-software-support-package/include/am572x_2_
    3324        .dwattr $C$DW$262, DW_AT_decl_line(0x188)
    3325        .dwattr $C$DW$262, DW_AT_decl_column(0x0d)
    3326        .dwendtag $C$DW$T$65
    3327
    3328        .dwattr $C$DW$T$65, DW_AT_decl_file("/usr/lib/ti/pru-software-support-package/include/am572x_2
    3329        .dwattr $C$DW$T$65, DW_AT_decl_line(0x180)
    3330        .dwattr $C$DW$T$65, DW_AT_decl_column(0x13)
    3331$C$DW$T$194     .dwtag  DW_TAG_volatile_type
    3332        .dwattr $C$DW$T$194, DW_AT_type(*$C$DW$T$65)
    3333
    3334$C$DW$T$66      .dwtag  DW_TAG_structure_type
    3335        .dwattr $C$DW$T$66, DW_AT_byte_size(0x04)
    3336$C$DW$263       .dwtag  DW_TAG_member
PRU Assembler Unix v2.1.5 Sat Jul  3 21:31:23 2021

Tools Copyright (c) 2012-2017 Texas Instruments Incorporated
/home/debian/BBAI-SHARED-MEM/pru_codes/tmp/main.asm                  PAGE   62

    3337        .dwattr $C$DW$263, DW_AT_type(*$C$DW$T$32)
    3338        .dwattr $C$DW$263, DW_AT_name("CH_MAP_36")
    3339        .dwattr $C$DW$263, DW_AT_TI_symbol_name("CH_MAP_36")
    3340        .dwattr $C$DW$263, DW_AT_bit_offset(0x1c), DW_AT_bit_size(0x04)
    3341        .dwattr $C$DW$263, DW_AT_data_member_location[DW_OP_plus_uconst 0x0]
    3342        .dwattr $C$DW$263, DW_AT_accessibility(DW_ACCESS_public)
    3343        .dwattr $C$DW$263, DW_AT_decl_file("/usr/lib/ti/pru-software-support-package/include/am572x_2_
    3344        .dwattr $C$DW$263, DW_AT_decl_line(0x192)
    3345        .dwattr $C$DW$263, DW_AT_decl_column(0x0d)
    3346$C$DW$264       .dwtag  DW_TAG_member
    3347        .dwattr $C$DW$264, DW_AT_type(*$C$DW$T$32)
    3348        .dwattr $C$DW$264, DW_AT_name("rsvd4")
    3349        .dwattr $C$DW$264, DW_AT_TI_symbol_name("rsvd4")
    3350        .dwattr $C$DW$264, DW_AT_bit_offset(0x18), DW_AT_bit_size(0x04)
    3351        .dwattr $C$DW$264, DW_AT_data_member_location[DW_OP_plus_uconst 0x0]
    3352        .dwattr $C$DW$264, DW_AT_accessibility(DW_ACCESS_public)
    3353        .dwattr $C$DW$264, DW_AT_decl_file("/usr/lib/ti/pru-software-support-package/include/am572x_2_
    3354        .dwattr $C$DW$264, DW_AT_decl_line(0x193)
    3355        .dwattr $C$DW$264, DW_AT_decl_column(0x0d)
    3356$C$DW$265       .dwtag  DW_TAG_member
    3357        .dwattr $C$DW$265, DW_AT_type(*$C$DW$T$32)
    3358        .dwattr $C$DW$265, DW_AT_name("CH_MAP_37")
    3359        .dwattr $C$DW$265, DW_AT_TI_symbol_name("CH_MAP_37")
    3360        .dwattr $C$DW$265, DW_AT_bit_offset(0x14), DW_AT_bit_size(0x04)
    3361        .dwattr $C$DW$265, DW_AT_data_member_location[DW_OP_plus_uconst 0x0]
    3362        .dwattr $C$DW$265, DW_AT_accessibility(DW_ACCESS_public)
    3363        .dwattr $C$DW$265, DW_AT_decl_file("/usr/lib/ti/pru-software-support-package/include/am572x_2_
    3364        .dwattr $C$DW$265, DW_AT_decl_line(0x194)
    3365        .dwattr $C$DW$265, DW_AT_decl_column(0x0d)
    3366$C$DW$266       .dwtag  DW_TAG_member
    3367        .dwattr $C$DW$266, DW_AT_type(*$C$DW$T$32)
    3368        .dwattr $C$DW$266, DW_AT_name("rsvd12")
    3369        .dwattr $C$DW$266, DW_AT_TI_symbol_name("rsvd12")
    3370        .dwattr $C$DW$266, DW_AT_bit_offset(0x10), DW_AT_bit_size(0x04)
    3371        .dwattr $C$DW$266, DW_AT_data_member_location[DW_OP_plus_uconst 0x0]
    3372        .dwattr $C$DW$266, DW_AT_accessibility(DW_ACCESS_public)
    3373        .dwattr $C$DW$266, DW_AT_decl_file("/usr/lib/ti/pru-software-support-package/include/am572x_2_
    3374        .dwattr $C$DW$266, DW_AT_decl_line(0x195)
    3375        .dwattr $C$DW$266, DW_AT_decl_column(0x0d)
    3376$C$DW$267       .dwtag  DW_TAG_member
    3377        .dwattr $C$DW$267, DW_AT_type(*$C$DW$T$32)
    3378        .dwattr $C$DW$267, DW_AT_name("CH_MAP_38")
    3379        .dwattr $C$DW$267, DW_AT_TI_symbol_name("CH_MAP_38")
    3380        .dwattr $C$DW$267, DW_AT_bit_offset(0x0c), DW_AT_bit_size(0x04)
    3381        .dwattr $C$DW$267, DW_AT_data_member_location[DW_OP_plus_uconst 0x0]
    3382        .dwattr $C$DW$267, DW_AT_accessibility(DW_ACCESS_public)
    3383        .dwattr $C$DW$267, DW_AT_decl_file("/usr/lib/ti/pru-software-support-package/include/am572x_2_
    3384        .dwattr $C$DW$267, DW_AT_decl_line(0x196)
    3385        .dwattr $C$DW$267, DW_AT_decl_column(0x0d)
    3386$C$DW$268       .dwtag  DW_TAG_member
    3387        .dwattr $C$DW$268, DW_AT_type(*$C$DW$T$32)
    3388        .dwattr $C$DW$268, DW_AT_name("rsvd20")
    3389        .dwattr $C$DW$268, DW_AT_TI_symbol_name("rsvd20")
    3390        .dwattr $C$DW$268, DW_AT_bit_offset(0x08), DW_AT_bit_size(0x04)
    3391        .dwattr $C$DW$268, DW_AT_data_member_location[DW_OP_plus_uconst 0x0]
PRU Assembler Unix v2.1.5 Sat Jul  3 21:31:23 2021

Tools Copyright (c) 2012-2017 Texas Instruments Incorporated
/home/debian/BBAI-SHARED-MEM/pru_codes/tmp/main.asm                  PAGE   63

    3392        .dwattr $C$DW$268, DW_AT_accessibility(DW_ACCESS_public)
    3393        .dwattr $C$DW$268, DW_AT_decl_file("/usr/lib/ti/pru-software-support-package/include/am572x_2_
    3394        .dwattr $C$DW$268, DW_AT_decl_line(0x197)
    3395        .dwattr $C$DW$268, DW_AT_decl_column(0x0d)
    3396$C$DW$269       .dwtag  DW_TAG_member
    3397        .dwattr $C$DW$269, DW_AT_type(*$C$DW$T$32)
    3398        .dwattr $C$DW$269, DW_AT_name("CH_MAP_39")
    3399        .dwattr $C$DW$269, DW_AT_TI_symbol_name("CH_MAP_39")
    3400        .dwattr $C$DW$269, DW_AT_bit_offset(0x04), DW_AT_bit_size(0x04)
    3401        .dwattr $C$DW$269, DW_AT_data_member_location[DW_OP_plus_uconst 0x0]
    3402        .dwattr $C$DW$269, DW_AT_accessibility(DW_ACCESS_public)
    3403        .dwattr $C$DW$269, DW_AT_decl_file("/usr/lib/ti/pru-software-support-package/include/am572x_2_
    3404        .dwattr $C$DW$269, DW_AT_decl_line(0x198)
    3405        .dwattr $C$DW$269, DW_AT_decl_column(0x0d)
    3406$C$DW$270       .dwtag  DW_TAG_member
    3407        .dwattr $C$DW$270, DW_AT_type(*$C$DW$T$32)
    3408        .dwattr $C$DW$270, DW_AT_name("rsvd28")
    3409        .dwattr $C$DW$270, DW_AT_TI_symbol_name("rsvd28")
    3410        .dwattr $C$DW$270, DW_AT_bit_offset(0x00), DW_AT_bit_size(0x04)
    3411        .dwattr $C$DW$270, DW_AT_data_member_location[DW_OP_plus_uconst 0x0]
    3412        .dwattr $C$DW$270, DW_AT_accessibility(DW_ACCESS_public)
    3413        .dwattr $C$DW$270, DW_AT_decl_file("/usr/lib/ti/pru-software-support-package/include/am572x_2_
    3414        .dwattr $C$DW$270, DW_AT_decl_line(0x199)
    3415        .dwattr $C$DW$270, DW_AT_decl_column(0x0d)
    3416        .dwendtag $C$DW$T$66
    3417
    3418        .dwattr $C$DW$T$66, DW_AT_decl_file("/usr/lib/ti/pru-software-support-package/include/am572x_2
    3419        .dwattr $C$DW$T$66, DW_AT_decl_line(0x191)
    3420        .dwattr $C$DW$T$66, DW_AT_decl_column(0x13)
    3421$C$DW$T$196     .dwtag  DW_TAG_volatile_type
    3422        .dwattr $C$DW$T$196, DW_AT_type(*$C$DW$T$66)
    3423
    3424$C$DW$T$67      .dwtag  DW_TAG_structure_type
    3425        .dwattr $C$DW$T$67, DW_AT_byte_size(0x04)
    3426$C$DW$271       .dwtag  DW_TAG_member
    3427        .dwattr $C$DW$271, DW_AT_type(*$C$DW$T$32)
    3428        .dwattr $C$DW$271, DW_AT_name("CH_MAP_40")
    3429        .dwattr $C$DW$271, DW_AT_TI_symbol_name("CH_MAP_40")
    3430        .dwattr $C$DW$271, DW_AT_bit_offset(0x1c), DW_AT_bit_size(0x04)
    3431        .dwattr $C$DW$271, DW_AT_data_member_location[DW_OP_plus_uconst 0x0]
    3432        .dwattr $C$DW$271, DW_AT_accessibility(DW_ACCESS_public)
    3433        .dwattr $C$DW$271, DW_AT_decl_file("/usr/lib/ti/pru-software-support-package/include/am572x_2_
    3434        .dwattr $C$DW$271, DW_AT_decl_line(0x1a3)
    3435        .dwattr $C$DW$271, DW_AT_decl_column(0x0d)
    3436$C$DW$272       .dwtag  DW_TAG_member
    3437        .dwattr $C$DW$272, DW_AT_type(*$C$DW$T$32)
    3438        .dwattr $C$DW$272, DW_AT_name("rsvd4")
    3439        .dwattr $C$DW$272, DW_AT_TI_symbol_name("rsvd4")
    3440        .dwattr $C$DW$272, DW_AT_bit_offset(0x18), DW_AT_bit_size(0x04)
    3441        .dwattr $C$DW$272, DW_AT_data_member_location[DW_OP_plus_uconst 0x0]
    3442        .dwattr $C$DW$272, DW_AT_accessibility(DW_ACCESS_public)
    3443        .dwattr $C$DW$272, DW_AT_decl_file("/usr/lib/ti/pru-software-support-package/include/am572x_2_
    3444        .dwattr $C$DW$272, DW_AT_decl_line(0x1a4)
    3445        .dwattr $C$DW$272, DW_AT_decl_column(0x0d)
    3446$C$DW$273       .dwtag  DW_TAG_member
PRU Assembler Unix v2.1.5 Sat Jul  3 21:31:23 2021

Tools Copyright (c) 2012-2017 Texas Instruments Incorporated
/home/debian/BBAI-SHARED-MEM/pru_codes/tmp/main.asm                  PAGE   64

    3447        .dwattr $C$DW$273, DW_AT_type(*$C$DW$T$32)
    3448        .dwattr $C$DW$273, DW_AT_name("CH_MAP_41")
    3449        .dwattr $C$DW$273, DW_AT_TI_symbol_name("CH_MAP_41")
    3450        .dwattr $C$DW$273, DW_AT_bit_offset(0x14), DW_AT_bit_size(0x04)
    3451        .dwattr $C$DW$273, DW_AT_data_member_location[DW_OP_plus_uconst 0x0]
    3452        .dwattr $C$DW$273, DW_AT_accessibility(DW_ACCESS_public)
    3453        .dwattr $C$DW$273, DW_AT_decl_file("/usr/lib/ti/pru-software-support-package/include/am572x_2_
    3454        .dwattr $C$DW$273, DW_AT_decl_line(0x1a5)
    3455        .dwattr $C$DW$273, DW_AT_decl_column(0x0d)
    3456$C$DW$274       .dwtag  DW_TAG_member
    3457        .dwattr $C$DW$274, DW_AT_type(*$C$DW$T$32)
    3458        .dwattr $C$DW$274, DW_AT_name("rsvd12")
    3459        .dwattr $C$DW$274, DW_AT_TI_symbol_name("rsvd12")
    3460        .dwattr $C$DW$274, DW_AT_bit_offset(0x10), DW_AT_bit_size(0x04)
    3461        .dwattr $C$DW$274, DW_AT_data_member_location[DW_OP_plus_uconst 0x0]
    3462        .dwattr $C$DW$274, DW_AT_accessibility(DW_ACCESS_public)
    3463        .dwattr $C$DW$274, DW_AT_decl_file("/usr/lib/ti/pru-software-support-package/include/am572x_2_
    3464        .dwattr $C$DW$274, DW_AT_decl_line(0x1a6)
    3465        .dwattr $C$DW$274, DW_AT_decl_column(0x0d)
    3466$C$DW$275       .dwtag  DW_TAG_member
    3467        .dwattr $C$DW$275, DW_AT_type(*$C$DW$T$32)
    3468        .dwattr $C$DW$275, DW_AT_name("CH_MAP_42")
    3469        .dwattr $C$DW$275, DW_AT_TI_symbol_name("CH_MAP_42")
    3470        .dwattr $C$DW$275, DW_AT_bit_offset(0x0c), DW_AT_bit_size(0x04)
    3471        .dwattr $C$DW$275, DW_AT_data_member_location[DW_OP_plus_uconst 0x0]
    3472        .dwattr $C$DW$275, DW_AT_accessibility(DW_ACCESS_public)
    3473        .dwattr $C$DW$275, DW_AT_decl_file("/usr/lib/ti/pru-software-support-package/include/am572x_2_
    3474        .dwattr $C$DW$275, DW_AT_decl_line(0x1a7)
    3475        .dwattr $C$DW$275, DW_AT_decl_column(0x0d)
    3476$C$DW$276       .dwtag  DW_TAG_member
    3477        .dwattr $C$DW$276, DW_AT_type(*$C$DW$T$32)
    3478        .dwattr $C$DW$276, DW_AT_name("rsvd20")
    3479        .dwattr $C$DW$276, DW_AT_TI_symbol_name("rsvd20")
    3480        .dwattr $C$DW$276, DW_AT_bit_offset(0x08), DW_AT_bit_size(0x04)
    3481        .dwattr $C$DW$276, DW_AT_data_member_location[DW_OP_plus_uconst 0x0]
    3482        .dwattr $C$DW$276, DW_AT_accessibility(DW_ACCESS_public)
    3483        .dwattr $C$DW$276, DW_AT_decl_file("/usr/lib/ti/pru-software-support-package/include/am572x_2_
    3484        .dwattr $C$DW$276, DW_AT_decl_line(0x1a8)
    3485        .dwattr $C$DW$276, DW_AT_decl_column(0x0d)
    3486$C$DW$277       .dwtag  DW_TAG_member
    3487        .dwattr $C$DW$277, DW_AT_type(*$C$DW$T$32)
    3488        .dwattr $C$DW$277, DW_AT_name("CH_MAP_43")
    3489        .dwattr $C$DW$277, DW_AT_TI_symbol_name("CH_MAP_43")
    3490        .dwattr $C$DW$277, DW_AT_bit_offset(0x04), DW_AT_bit_size(0x04)
    3491        .dwattr $C$DW$277, DW_AT_data_member_location[DW_OP_plus_uconst 0x0]
    3492        .dwattr $C$DW$277, DW_AT_accessibility(DW_ACCESS_public)
    3493        .dwattr $C$DW$277, DW_AT_decl_file("/usr/lib/ti/pru-software-support-package/include/am572x_2_
    3494        .dwattr $C$DW$277, DW_AT_decl_line(0x1a9)
    3495        .dwattr $C$DW$277, DW_AT_decl_column(0x0d)
    3496$C$DW$278       .dwtag  DW_TAG_member
    3497        .dwattr $C$DW$278, DW_AT_type(*$C$DW$T$32)
    3498        .dwattr $C$DW$278, DW_AT_name("rsvd28")
    3499        .dwattr $C$DW$278, DW_AT_TI_symbol_name("rsvd28")
    3500        .dwattr $C$DW$278, DW_AT_bit_offset(0x00), DW_AT_bit_size(0x04)
    3501        .dwattr $C$DW$278, DW_AT_data_member_location[DW_OP_plus_uconst 0x0]
PRU Assembler Unix v2.1.5 Sat Jul  3 21:31:23 2021

Tools Copyright (c) 2012-2017 Texas Instruments Incorporated
/home/debian/BBAI-SHARED-MEM/pru_codes/tmp/main.asm                  PAGE   65

    3502        .dwattr $C$DW$278, DW_AT_accessibility(DW_ACCESS_public)
    3503        .dwattr $C$DW$278, DW_AT_decl_file("/usr/lib/ti/pru-software-support-package/include/am572x_2_
    3504        .dwattr $C$DW$278, DW_AT_decl_line(0x1aa)
    3505        .dwattr $C$DW$278, DW_AT_decl_column(0x0d)
    3506        .dwendtag $C$DW$T$67
    3507
    3508        .dwattr $C$DW$T$67, DW_AT_decl_file("/usr/lib/ti/pru-software-support-package/include/am572x_2
    3509        .dwattr $C$DW$T$67, DW_AT_decl_line(0x1a2)
    3510        .dwattr $C$DW$T$67, DW_AT_decl_column(0x13)
